(dp0
S'Potentiometer1'
p1
(dp2
S'2000-01-01 00:25:43.767987'
p3
F0.668800020218
sS'2000-01-01 00:26:11.708984'
p4
F0.66960000515
sS'2000-01-01 00:26:28.330057'
p5
F0.551999988556
sS'2000-01-01 00:25:20.453130'
p6
F0.671200017929
sS'2000-01-01 00:25:27.803884'
p7
F0.670399990082
sS'2000-01-01 00:25:36.755205'
p8
F0.672799987793
sS'2000-01-01 00:25:39.833467'
p9
F0.672799987793
sS'2000-01-01 00:26:18.103456'
p10
F0.66960000515
sS'2000-01-01 00:25:28.015595'
p11
F0.672799987793
sS'2000-01-01 00:25:39.939389'
p12
F0.670399990082
sS'2000-01-01 00:25:51.456808'
p13
F0.671200017929
sS'2000-01-01 00:26:03.189709'
p14
F0.67360001564
sS'2000-01-01 00:25:20.560508'
p15
F0.670399990082
sS'2000-01-01 00:26:06.917957'
p16
F0.671200017929
sS'2000-01-01 00:25:28.226628'
p17
F0.668800020218
sS'2000-01-01 00:26:05.103021'
p18
F0.671200017929
sS'2000-01-01 00:26:00.101611'
p19
F0.674400000572
sS'2000-01-01 00:25:30.032673'
p20
F0.670399990082
sS'2000-01-01 00:25:21.516112'
p21
F0.670399990082
sS'2000-01-01 00:25:40.046415'
p22
F0.670399990082
sS'2000-01-01 00:25:25.993401'
p23
F0.66960000515
sS'2000-01-01 00:26:01.697274'
p24
F0.672799987793
sS'2000-01-01 00:25:33.337893'
p25
F0.67360001564
sS'2000-01-01 00:25:32.381506'
p26
F0.672000002861
sS'2000-01-01 00:25:39.302755'
p27
F0.672000002861
sS'2000-01-01 00:25:57.955053'
p28
F0.672799987793
sS'2000-01-01 00:26:24.918861'
p29
F0.555200014114
sS'2000-01-01 00:25:46.435560'
p30
F0.672799987793
sS'2000-01-01 00:26:02.764845'
p31
F0.672799987793
sS'2000-01-01 00:26:28.862447'
p32
F0.553600001335
sS'2000-01-01 00:26:22.364755'
p33
F0.554399986267
sS'2000-01-01 00:25:32.702875'
p34
F0.672799987793
sS'2000-01-01 00:26:16.082024'
p35
F0.672799987793
sS'2000-01-01 00:26:11.284932'
p36
F0.672799987793
sS'2000-01-01 00:26:06.271768'
p37
F0.672000002861
sS'2000-01-01 00:25:41.854674'
p38
F0.67360001564
sS'2000-01-01 00:25:27.378067'
p39
F0.667999992371
sS'2000-01-01 00:25:42.492211'
p40
F0.67360001564
sS'2000-01-01 00:25:32.914089'
p41
F0.672799987793
sS'2000-01-01 00:26:17.571790'
p42
F0.66960000515
sS'2000-01-01 00:25:49.208249'
p43
F0.672000002861
sS'2000-01-01 00:25:55.294701'
p44
F0.67360001564
sS'2000-01-01 00:26:18.954418'
p45
F0.577600021362
sS'2000-01-01 00:26:04.996015'
p46
F0.671200017929
sS'2000-01-01 00:26:10.966349'
p47
F0.672799987793
sS'2000-01-01 00:25:58.273704'
p48
F0.66960000515
sS'2000-01-01 00:25:50.484456'
p49
F0.672799987793
sS'2000-01-01 00:26:02.978026'
p50
F0.671200017929
sS'2000-01-01 00:26:20.769898'
p51
F0.705600013733
sS'2000-01-01 00:25:57.105001'
p52
F0.672799987793
sS'2000-01-01 00:25:29.926914'
p53
F0.672000002861
sS'2000-01-01 00:25:22.261202'
p54
F0.66960000515
sS'2000-01-01 00:26:28.224134'
p55
F0.552800016403
sS'2000-01-01 00:26:26.411856'
p56
F0.551200003624
sS'2000-01-01 00:26:00.634837'
p57
F0.66960000515
sS'2000-01-01 00:26:06.484165'
p58
F0.674400000572
sS'2000-01-01 00:25:21.410172'
p59
F0.66960000515
sS'2000-01-01 00:25:40.578853'
p60
F0.672799987793
sS'2000-01-01 00:26:18.741101'
p61
F0.668800020218
sS'2000-01-01 00:25:37.708955'
p62
F0.671200017929
sS'2000-01-01 00:26:24.171884'
p63
F0.554399986267
sS'2000-01-01 00:26:09.785588'
p64
F0.672000002861
sS'2000-01-01 00:26:11.390639'
p65
F0.671200017929
sS'2000-01-01 00:26:01.911350'
p66
F0.671200017929
sS'2000-01-01 00:25:45.370554'
p67
F0.670399990082
sS'2000-01-01 00:25:23.652123'
p68
F0.670399990082
sS'2000-01-01 00:26:00.421242'
p69
F0.672799987793
sS'2000-01-01 00:26:21.939202'
p70
F0.919199981689
sS'2000-01-01 00:25:59.236338'
p71
F0.67360001564
sS'2000-01-01 00:25:28.864758'
p72
F0.672799987793
sS'2000-01-01 00:26:00.848839'
p73
F0.672799987793
sS'2000-01-01 00:25:33.019536'
p74
F0.671200017929
sS'2000-01-01 00:25:29.607430'
p75
F0.668800020218
sS'2000-01-01 00:26:04.890163'
p76
F0.67360001564
sS'2000-01-01 00:25:45.050717'
p77
F0.66960000515
sS'2000-01-01 00:25:37.814788'
p78
F0.67360001564
sS'2000-01-01 00:25:44.625400'
p79
F0.674400000572
sS'2000-01-01 00:26:05.740371'
p80
F0.672799987793
sS'2000-01-01 00:25:21.835128'
p81
F0.668800020218
sS'2000-01-01 00:25:41.216796'
p82
F0.67360001564
sS'2000-01-01 00:26:02.229979'
p83
F0.672000002861
sS'2000-01-01 00:26:05.526890'
p84
F0.672799987793
sS'2000-01-01 00:25:22.799966'
p85
F0.670399990082
sS'2000-01-01 00:25:23.864422'
p86
F0.671200017929
sS'2000-01-01 00:25:31.956431'
p87
F0.672799987793
sS'2000-01-01 00:26:25.345729'
p88
F0.551200003624
sS'2000-01-01 00:26:27.162110'
p89
F0.552800016403
sS'2000-01-01 00:25:43.342564'
p90
F0.67360001564
sS'2000-01-01 00:25:56.998057'
p91
F0.672799987793
sS'2000-01-01 00:26:18.422994'
p92
F0.670399990082
sS'2000-01-01 00:26:30.778244'
p93
F0.551999988556
sS'2000-01-01 00:26:29.393354'
p94
F0.551200003624
sS'2000-01-01 00:25:50.815801'
p95
F0.672000002861
sS'2000-01-01 00:25:44.298836'
p96
F0.672799987793
sS'2000-01-01 00:25:26.419944'
p97
F0.66960000515
sS'2000-01-01 00:26:08.723876'
p98
F0.672000002861
sS'2000-01-01 00:26:17.361119'
p99
F0.672799987793
sS'2000-01-01 00:25:44.404301'
p100
F0.671200017929
sS'2000-01-01 00:26:29.287376'
p101
F0.551200003624
sS'2000-01-01 00:25:48.569820'
p102
F0.672000002861
sS'2000-01-01 00:25:32.063701'
p103
F0.672799987793
sS'2000-01-01 00:26:28.968309'
p104
F0.551999988556
sS'2000-01-01 00:26:06.589901'
p105
F0.672799987793
sS'2000-01-01 00:26:03.933097'
p106
F0.672000002861
sS'2000-01-01 00:26:31.521050'
p107
F0.551999988556
sS'2000-01-01 00:25:51.350253'
p108
F0.672000002861
sS'2000-01-01 00:26:16.937477'
p109
F0.671200017929
sS'2000-01-01 00:25:30.891737'
p110
F0.66960000515
sS'2000-01-01 00:26:22.792177'
p111
F0.548800005913
sS'2000-01-01 00:25:42.598437'
p112
F0.672000002861
sS'2000-01-01 00:25:42.812497'
p113
F0.67360001564
sS'2000-01-01 00:26:03.296176'
p114
F0.670399990082
sS'2000-01-01 00:26:12.559768'
p115
F0.672000002861
sS'2000-01-01 00:26:00.741544'
p116
F0.672799987793
sS'2000-01-01 00:25:46.009263'
p117
F0.672799987793
sS'2000-01-01 00:26:25.773739'
p118
F0.553600001335
sS'2000-01-01 00:26:03.083934'
p119
F0.672799987793
sS'2000-01-01 00:25:42.386273'
p120
F0.672799987793
sS'2000-01-01 00:26:02.658251'
p121
F0.670399990082
sS'2000-01-01 00:26:07.237450'
p122
F0.672799987793
sS'2000-01-01 00:26:00.207788'
p123
F0.672799987793
sS'2000-01-01 00:26:19.379665'
p124
F0.181599991322
sS'2000-01-01 00:25:31.423338'
p125
F0.672799987793
sS'2000-01-01 00:26:08.406017'
p126
F0.671200017929
sS'2000-01-01 00:25:24.183105'
p127
F0.667999992371
sS'2000-01-01 00:25:43.128930'
p128
F0.672799987793
sS'2000-01-01 00:25:22.154306'
p129
F0.672000002861
sS'2000-01-01 00:25:40.685335'
p130
F0.672799987793
sS'2000-01-01 00:26:12.134684'
p131
F0.672799987793
sS'2000-01-01 00:25:56.785987'
p132
F0.668800020218
sS'2000-01-01 00:25:25.781336'
p133
F0.670399990082
sS'2000-01-01 00:25:39.196509'
p134
F0.67360001564
sS'2000-01-01 00:26:13.630360'
p135
F0.672799987793
sS'2000-01-01 00:25:45.156337'
p136
F0.670399990082
sS'2000-01-01 00:25:33.762142'
p137
F0.670399990082
sS'2000-01-01 00:26:09.893253'
p138
F0.671200017929
sS'2000-01-01 00:25:58.167463'
p139
F0.672799987793
sS'2000-01-01 00:25:20.985474'
p140
F0.670399990082
sS'2000-01-01 00:25:57.210894'
p141
F0.67360001564
sS'2000-01-01 00:25:57.742429'
p142
F0.672799987793
sS'2000-01-01 00:25:34.079866'
p143
F0.670399990082
sS'2000-01-01 00:25:34.187050'
p144
F0.670399990082
sS'2000-01-01 00:26:04.358248'
p145
F0.67360001564
sS'2000-01-01 00:25:24.822576'
p146
F0.668800020218
sS'2000-01-01 00:25:50.378162'
p147
F0.671200017929
sS'2000-01-01 00:26:30.458102'
p148
F0.551999988556
sS'2000-01-01 00:25:57.422627'
p149
F0.672000002861
sS'2000-01-01 00:25:35.897163'
p150
F0.672799987793
sS'2000-01-01 00:25:50.272243'
p151
F0.672799987793
sS'2000-01-01 00:25:21.197219'
p152
F0.672799987793
sS'2000-01-01 00:26:15.229874'
p153
F0.672799987793
sS'2000-01-01 00:25:58.485594'
p154
F0.672799987793
sS'2000-01-01 00:26:07.660489'
p155
F0.672799987793
sS'2000-01-01 00:26:28.649291'
p156
F0.552800016403
sS'2000-01-01 00:25:20.240211'
p157
F0.671200017929
sS'2000-01-01 00:25:26.952899'
p158
F0.66960000515
sS'2000-01-01 00:26:31.095712'
p159
F0.551999988556
sS'2000-01-01 00:25:38.134047'
p160
F0.672799987793
sS'2000-01-01 00:25:48.146492'
p161
F0.674400000572
sS'2000-01-01 00:25:47.614739'
p162
F0.672799987793
sS'2000-01-01 00:25:24.500584'
p163
F0.670399990082
sS'2000-01-01 00:25:45.795854'
p164
F0.672799987793
sS'2000-01-01 00:26:28.118658'
p165
F0.552800016403
sS'2000-01-01 00:25:54.975380'
p166
F0.67360001564
sS'2000-01-01 00:25:30.785415'
p167
F0.672799987793
sS'2000-01-01 00:25:37.074220'
p168
F0.670399990082
sS'2000-01-01 00:26:23.640616'
p169
F0.554399986267
sS'2000-01-01 00:25:29.712886'
p170
F0.671200017929
sS'2000-01-01 00:25:24.288814'
p171
F0.671200017929
sS'2000-01-01 00:26:16.401202'
p172
F0.66960000515
sS'2000-01-01 00:25:28.438976'
p173
F0.667200007439
sS'2000-01-01 00:26:16.723889'
p174
F0.671200017929
sS'2000-01-01 00:25:55.614760'
p175
F0.672799987793
sS'2000-01-01 00:25:44.731731'
p176
F0.672799987793
sS'2000-01-01 00:26:27.056638'
p177
F0.551999988556
sS'2000-01-01 00:26:01.060504'
p178
F0.672000002861
sS'2000-01-01 00:25:37.179690'
p179
F0.674400000572
sS'2000-01-01 00:26:24.490203'
p180
F0.555200014114
sS'2000-01-01 00:25:23.226571'
p181
F0.672799987793
sS'2000-01-01 00:26:10.752066'
p182
F0.672799987793
sS'2000-01-01 00:25:43.448506'
p183
F0.670399990082
sS'2000-01-01 00:26:04.678227'
p184
F0.672000002861
sS'2000-01-01 00:26:14.267589'
p185
F0.672799987793
sS'2000-01-01 00:25:51.987570'
p186
F0.672000002861
sS'2000-01-01 00:26:17.042985'
p187
F0.674400000572
sS'2000-01-01 00:25:48.994888'
p188
F0.672799987793
sS'2000-01-01 00:25:33.126451'
p189
F0.672000002861
sS'2000-01-01 00:26:04.571464'
p190
F0.67360001564
sS'2000-01-01 00:26:18.847341'
p191
F0.665599994659
sS'2000-01-01 00:26:02.123015'
p192
F0.670399990082
sS'2000-01-01 00:25:58.060557'
p193
F0.672799987793
sS'2000-01-01 00:25:53.689737'
p194
F0.672799987793
sS'2000-01-01 00:25:32.487210'
p195
F0.67360001564
sS'2000-01-01 00:25:56.892141'
p196
F0.671200017929
sS'2000-01-01 00:25:53.796380'
p197
F0.672799987793
sS'2000-01-01 00:26:20.230508'
p198
F0.744800004959
sS'2000-01-01 00:25:52.629062'
p199
F0.672000002861
sS'2000-01-01 00:26:29.075480'
p200
F0.551999988556
sS'2000-01-01 00:25:24.928880'
p201
F0.672799987793
sS'2000-01-01 00:26:30.564227'
p202
F0.550400018692
sS'2000-01-01 00:26:23.748425'
p203
F0.551200003624
sS'2000-01-01 00:26:07.129584'
p204
F0.672799987793
sS'2000-01-01 00:25:33.655778'
p205
F0.67360001564
sS'2000-01-01 00:25:34.293693'
p206
F0.672000002861
sS'2000-01-01 00:25:46.764464'
p207
F0.675199985504
sS'2000-01-01 00:25:54.761814'
p208
F0.672799987793
sS'2000-01-01 00:25:38.453178'
p209
F0.67360001564
sS'2000-01-01 00:25:54.009294'
p210
F0.672799987793
sS'2000-01-01 00:26:15.443723'
p211
F0.672799987793
sS'2000-01-01 00:26:07.768430'
p212
F0.671200017929
sS'2000-01-01 00:25:34.505839'
p213
F0.670399990082
sS'2000-01-01 00:25:49.102282'
p214
F0.67360001564
sS'2000-01-01 00:25:54.223100'
p215
F0.67360001564
sS'2000-01-01 00:26:10.424642'
p216
F0.672000002861
sS'2000-01-01 00:25:55.081280'
p217
F0.674400000572
sS'2000-01-01 00:25:37.603519'
p218
F0.672000002861
sS'2000-01-01 00:26:14.479970'
p219
F0.672799987793
sS'2000-01-01 00:25:36.322228'
p220
F0.672000002861
sS'2000-01-01 00:25:49.846616'
p221
F0.672000002861
sS'2000-01-01 00:26:26.843551'
p222
F0.551200003624
sS'2000-01-01 00:25:21.621929'
p223
F0.672799987793
sS'2000-01-01 00:25:32.596974'
p224
F0.672799987793
sS'2000-01-01 00:25:35.042129'
p225
F0.672799987793
sS'2000-01-01 00:26:23.960441'
p226
F0.555999999046
sS'2000-01-01 00:26:09.679739'
p227
F0.672000002861
sS'2000-01-01 00:26:19.060097'
p228
F0.533599991798
sS'2000-01-01 00:25:47.933688'
p229
F0.674400000572
sS'2000-01-01 00:26:20.876907'
p230
F0.707199983597
sS'2000-01-01 00:26:02.870627'
p231
F0.672799987793
sS'2000-01-01 00:26:29.606695'
p232
F0.554399986267
sS'2000-01-01 00:25:33.548872'
p233
F0.672000002861
sS'2000-01-01 00:25:36.542274'
p234
F0.670399990082
sS'2000-01-01 00:26:10.210989'
p235
F0.672799987793
sS'2000-01-01 00:25:37.285250'
p236
F0.672000002861
sS'2000-01-01 00:25:27.164065'
p237
F0.674400000572
sS'2000-01-01 00:26:19.273670'
p238
F0.235199990273
sS'2000-01-01 00:26:23.217954'
p239
F0.553600001335
sS'2000-01-01 00:25:59.659684'
p240
F0.670399990082
sS'2000-01-01 00:25:45.688994'
p241
F0.66960000515
sS'2000-01-01 00:25:51.881795'
p242
F0.672000002861
sS'2000-01-01 00:25:28.970673'
p243
F0.66960000515
sS'2000-01-01 00:25:54.542212'
p244
F0.672799987793
sS'2000-01-01 00:26:27.374989'
p245
F0.551999988556
sS'2000-01-01 00:26:30.884558'
p246
F0.552800016403
sS'2000-01-01 00:25:30.138429'
p247
F0.66960000515
sS'2000-01-01 00:26:16.613529'
p248
F0.672799987793
sS'2000-01-01 00:25:38.877352'
p249
F0.670399990082
sS'2000-01-01 00:25:20.347191'
p250
F0.66960000515
sS'2000-01-01 00:26:29.819138'
p251
F0.551200003624
sS'2000-01-01 00:25:23.970251'
p252
F0.670399990082
sS'2000-01-01 00:25:26.527413'
p253
F0.66960000515
sS'2000-01-01 00:26:14.585956'
p254
F0.670399990082
sS'2000-01-01 00:25:22.693747'
p255
F0.670399990082
sS'2000-01-01 00:26:30.990230'
p256
F0.551999988556
sS'2000-01-01 00:26:20.982800'
p257
F0.708000011444
sS'2000-01-01 00:25:33.443371'
p258
F0.672799987793
sS'2000-01-01 00:25:31.211011'
p259
F0.672799987793
sS'2000-01-01 00:26:30.030741'
p260
F0.554399986267
sS'2000-01-01 00:26:27.587415'
p261
F0.549599990845
sS'2000-01-01 00:25:19.938211'
p262
F0.667200007439
sS'2000-01-01 00:26:25.131620'
p263
F0.550400018692
sS'2000-01-01 00:26:29.181138'
p264
F0.553600001335
sS'2000-01-01 00:26:30.671377'
p265
F0.552800016403
sS'2000-01-01 00:25:20.771836'
p266
F0.670399990082
sS'2000-01-01 00:26:13.100317'
p267
F0.670399990082
sS'2000-01-01 00:26:22.576181'
p268
F0.552800016403
sS'2000-01-01 00:25:54.329026'
p269
F0.671200017929
sS'2000-01-01 00:25:35.790170'
p270
F0.66960000515
sS'2000-01-01 00:25:31.637479'
p271
F0.67360001564
sS'2000-01-01 00:25:26.313959'
p272
F0.668800020218
sS'2000-01-01 00:26:23.429695'
p273
F0.554399986267
sS'2000-01-01 00:26:13.736347'
p274
F0.672799987793
sS'2000-01-01 00:25:52.199647'
p275
F0.672000002861
sS'2000-01-01 00:25:43.874130'
p276
F0.672000002861
sS'2000-01-01 00:26:00.315303'
p277
F0.672799987793
sS'2000-01-01 00:25:20.134677'
p278
F0.665599994659
sS'2000-01-01 00:25:46.870536'
p279
F0.672000002861
sS'2000-01-01 00:26:01.379223'
p280
F0.672000002861
sS'2000-01-01 00:25:56.571530'
p281
F0.672000002861
sS'2000-01-01 00:25:29.181586'
p282
F0.672799987793
sS'2000-01-01 00:25:59.448478'
p283
F0.672000002861
sS'2000-01-01 00:25:54.115998'
p284
F0.668800020218
sS'2000-01-01 00:26:10.858875'
p285
F0.672000002861
sS'2000-01-01 00:25:41.322938'
p286
F0.671200017929
sS'2000-01-01 00:25:40.470714'
p287
F0.67360001564
sS'2000-01-01 00:26:24.812785'
p288
F0.553600001335
sS'2000-01-01 00:26:00.954580'
p289
F0.670399990082
sS'2000-01-01 00:25:32.808604'
p290
F0.672799987793
sS'2000-01-01 00:26:08.617195'
p291
F0.672799987793
sS'2000-01-01 00:25:53.054688'
p292
F0.671200017929
sS'2000-01-01 00:26:21.833395'
p293
F0.996800022125
sS'2000-01-01 00:26:15.764113'
p294
F0.672799987793
sS'2000-01-01 00:26:12.781259'
p295
F0.672000002861
sS'2000-01-01 00:26:03.509025'
p296
F0.67360001564
sS'2000-01-01 00:25:51.562463'
p297
F0.67360001564
sS'2000-01-01 00:25:36.968292'
p298
F0.672799987793
sS'2000-01-01 00:25:43.979970'
p299
F0.672799987793
sS'2000-01-01 00:25:27.910134'
p300
F0.670399990082
sS'2000-01-01 00:26:27.481924'
p301
F0.551999988556
sS'2000-01-01 00:25:25.887464'
p302
F0.66960000515
sS'2000-01-01 00:25:31.850369'
p303
F0.670399990082
sS'2000-01-01 00:26:09.362461'
p304
F0.67360001564
sS'2000-01-01 00:26:14.373424'
p305
F0.672000002861
sS'2000-01-01 00:25:44.085495'
p306
F0.672799987793
sS'2000-01-01 00:25:20.879540'
p307
F0.670399990082
sS'2000-01-01 00:26:24.384716'
p308
F0.554399986267
sS'2000-01-01 00:25:21.302766'
p309
F0.671200017929
sS'2000-01-01 00:25:22.048836'
p310
F0.667999992371
sS'2000-01-01 00:26:24.278805'
p311
F0.553600001335
sS'2000-01-01 00:25:39.621097'
p312
F0.671200017929
sS'2000-01-01 00:25:21.091298'
p313
F0.670399990082
sS'2000-01-01 00:25:27.271508'
p314
F0.670399990082
sS'2000-01-01 00:25:53.265680'
p315
F0.671200017929
sS'2000-01-01 00:26:03.720711'
p316
F0.672000002861
sS'2000-01-01 00:26:01.591312'
p317
F0.670399990082
sS'2000-01-01 00:26:18.634768'
p318
F0.668800020218
sS'2000-01-01 00:25:46.327664'
p319
F0.672799987793
sS'2000-01-01 00:26:26.950678'
p320
F0.551200003624
sS'2000-01-01 00:25:27.483876'
p321
F0.670399990082
sS'2000-01-01 00:26:26.304438'
p322
F0.551200003624
sS'2000-01-01 00:26:08.192636'
p323
F0.672799987793
sS'2000-01-01 00:26:16.507139'
p324
F0.672799987793
sS'2000-01-01 00:25:48.251957'
p325
F0.672799987793
sS'2000-01-01 00:25:59.767837'
p326
F0.672799987793
sS'2000-01-01 00:25:28.757816'
p327
F0.67360001564
sS'2000-01-01 00:26:01.485461'
p328
F0.672799987793
sS'2000-01-01 00:26:05.208540'
p329
F0.672799987793
sS'2000-01-01 00:25:49.420334'
p330
F0.67360001564
sS'2000-01-01 00:25:26.633932'
p331
F0.672799987793
sS'2000-01-01 00:25:52.735505'
p332
F0.67360001564
sS'2000-01-01 00:26:17.997804'
p333
F0.672000002861
sS'2000-01-01 00:25:25.356200'
p334
F0.672000002861
sS'2000-01-01 00:25:38.240257'
p335
F0.672799987793
sS'2000-01-01 00:25:35.470229'
p336
F0.670399990082
sS'2000-01-01 00:25:20.036482'
p337
F0.667200007439
sS'2000-01-01 00:25:43.554237'
p338
F0.672799987793
sS'2000-01-01 00:25:34.617173'
p339
F0.672000002861
sS'2000-01-01 00:25:34.399689'
p340
F0.672000002861
sS'2000-01-01 00:25:52.949170'
p341
F0.670399990082
sS'2000-01-01 00:26:18.528799'
p342
F0.667200007439
sS'2000-01-01 00:25:53.478518'
p343
F0.670399990082
sS'2000-01-01 00:26:23.535152'
p344
F0.551200003624
sS'2000-01-01 00:26:05.314477'
p345
F0.672799987793
sS'2000-01-01 00:26:26.198427'
p346
F0.551200003624
sS'2000-01-01 00:25:49.526297'
p347
F0.671200017929
sS'2000-01-01 00:26:23.110095'
p348
F0.553600001335
sS'2000-01-01 00:25:35.148446'
p349
F0.670399990082
sS'2000-01-01 00:26:26.736731'
p350
F0.551999988556
sS'2000-01-01 00:25:24.714352'
p351
F0.670399990082
sS'2000-01-01 00:25:42.280511'
p352
F0.670399990082
sS'2000-01-01 00:26:17.466358'
p353
F0.675199985504
sS'2000-01-01 00:25:41.748456'
p354
F0.672799987793
sS'2000-01-01 00:26:09.574187'
p355
F0.670399990082
sS'2000-01-01 00:25:35.576177'
p356
F0.672799987793
sS'2000-01-01 00:25:59.022357'
p357
F0.672799987793
sS'2000-01-01 00:26:13.312008'
p358
F0.670399990082
sS'2000-01-01 00:25:26.207048'
p359
F0.66960000515
sS'2000-01-01 00:26:09.254811'
p360
F0.672000002861
sS'2000-01-01 00:26:21.195365'
p361
F0.707199983597
sS'2000-01-01 00:25:55.509121'
p362
F0.672799987793
sS'2000-01-01 00:26:05.421103'
p363
F0.670399990082
sS'2000-01-01 00:26:02.442676'
p364
F0.672799987793
sS'2000-01-01 00:26:28.013013'
p365
F0.552800016403
sS'2000-01-01 00:26:01.271483'
p366
F0.67360001564
sS'2000-01-01 00:26:13.523496'
p367
F0.67360001564
sS'2000-01-01 00:25:56.145992'
p368
F0.672000002861
sS'2000-01-01 00:26:10.636698'
p369
F0.670399990082
sS'2000-01-01 00:25:37.497580'
p370
F0.672000002861
sS'2000-01-01 00:25:49.740321'
p371
F0.672799987793
sS'2000-01-01 00:25:56.464302'
p372
F0.672000002861
sS'2000-01-01 00:26:19.698724'
p373
F0.375999999046
sS'2000-01-01 00:26:04.252260'
p374
F0.672799987793
sS'2000-01-01 00:26:07.980858'
p375
F0.67360001564
sS'2000-01-01 00:25:38.559568'
p376
F0.66960000515
sS'2000-01-01 00:26:13.417972'
p377
F0.670399990082
sS'2000-01-01 00:26:01.166018'
p378
F0.672000002861
sS'2000-01-01 00:25:47.189529'
p379
F0.672000002861
sS'2000-01-01 00:25:33.868365'
p380
F0.672799987793
sS'2000-01-01 00:26:26.623052'
p381
F0.551200003624
sS'2000-01-01 00:26:11.178632'
p382
F0.672000002861
sS'2000-01-01 00:25:30.999354'
p383
F0.672000002861
sS'2000-01-01 00:26:20.655751'
p384
F0.704799985886
sS'2000-01-01 00:25:36.427821'
p385
F0.674400000572
sS'2000-01-01 00:26:23.323764'
p386
F0.555200014114
sS'2000-01-01 00:26:22.683108'
p387
F0.554399986267
sS'2000-01-01 00:26:07.343272'
p388
F0.672799987793
sS'2000-01-01 00:26:11.071775'
p389
F0.672000002861
sS'2000-01-01 00:25:48.677242'
p390
F0.67360001564
sS'2000-01-01 00:26:23.854612'
p391
F0.554399986267
sS'2000-01-01 00:26:10.317191'
p392
F0.672799987793
sS'2000-01-01 00:25:44.191479'
p393
F0.672799987793
sS'2000-01-01 00:26:31.626966'
p394
F0.549599990845
sS'2000-01-01 00:26:04.040248'
p395
F0.672000002861
sS'2000-01-01 00:26:17.784127'
p396
F0.667999992371
sS'2000-01-01 00:25:56.357363'
p397
F0.672000002861
sS'2000-01-01 00:26:25.667224'
p398
F0.552800016403
sS'2000-01-01 00:26:15.870330'
p399
F0.672000002861
sS'2000-01-01 00:26:25.237751'
p400
F0.555200014114
sS'2000-01-01 00:25:59.979997'
p401
F0.67360001564
sS'2000-01-01 00:26:24.595774'
p402
F0.554399986267
sS'2000-01-01 00:25:36.649229'
p403
F0.672000002861
sS'2000-01-01 00:26:30.350484'
p404
F0.551200003624
sS'2000-01-01 00:25:56.251484'
p405
F0.667999992371
sS'2000-01-01 00:25:23.438699'
p406
F0.668800020218
sS'2000-01-01 00:25:58.810549'
p407
F0.672799987793
sS'2000-01-01 00:25:22.587879'
p408
F0.67360001564
sS'2000-01-01 00:25:56.678570'
p409
F0.672799987793
sS'2000-01-01 00:26:26.091796'
p410
F0.554399986267
sS'2000-01-01 00:26:28.436186'
p411
F0.553600001335
sS'2000-01-01 00:25:59.342569'
p412
F0.67360001564
sS'2000-01-01 00:25:23.546047'
p413
F0.672000002861
sS'2000-01-01 00:25:35.364014'
p414
F0.672000002861
sS'2000-01-01 00:25:24.394089'
p415
F0.670399990082
sS'2000-01-01 00:26:21.407386'
p416
F0.896799974442
sS'2000-01-01 00:26:14.161404'
p417
F0.672799987793
sS'2000-01-01 00:25:55.188444'
p418
F0.671200017929
sS'2000-01-01 00:26:15.976083'
p419
F0.672799987793
sS'2000-01-01 00:26:12.992932'
p420
F0.670399990082
sS'2000-01-01 00:26:15.015404'
p421
F0.671200017929
sS'2000-01-01 00:25:47.295685'
p422
F0.66960000515
sS'2000-01-01 00:26:09.148688'
p423
F0.67360001564
sS'2000-01-01 00:26:09.042976'
p424
F0.67360001564
sS'2000-01-01 00:25:51.136261'
p425
F0.674400000572
sS'2000-01-01 00:26:19.806200'
p426
F0.503200006485
sS'2000-01-01 00:25:25.675308'
p427
F0.66960000515
sS'2000-01-01 00:25:43.660099'
p428
F0.67360001564
sS'2000-01-01 00:26:24.066417'
p429
F0.551999988556
sS'2000-01-01 00:26:13.948522'
p430
F0.672799987793
sS'2000-01-01 00:25:51.775741'
p431
F0.672000002861
sS'2000-01-01 00:26:15.121055'
p432
F0.672799987793
sS'2000-01-01 00:25:38.771498'
p433
F0.67360001564
sS'2000-01-01 00:26:19.165937'
p434
F0.341600003242
sS'2000-01-01 00:25:34.724123'
p435
F0.672799987793
sS'2000-01-01 00:25:26.847213'
p436
F0.671200017929
sS'2000-01-01 00:25:27.589357'
p437
F0.66960000515
sS'2000-01-01 00:25:46.221865'
p438
F0.672799987793
sS'2000-01-01 00:26:08.299978'
p439
F0.672799987793
sS'2000-01-01 00:25:50.924365'
p440
F0.671200017929
sS'2000-01-01 00:25:34.830142'
p441
F0.672799987793
sS'2000-01-01 00:25:42.917972'
p442
F0.67360001564
sS'2000-01-01 00:26:27.905751'
p443
F0.550400018692
sS'2000-01-01 00:25:20.666022'
p444
F0.670399990082
sS'2000-01-01 00:26:11.814814'
p445
F0.672000002861
sS'2000-01-01 00:26:12.887094'
p446
F0.672000002861
sS'2000-01-01 00:25:49.952644'
p447
F0.672000002861
sS'2000-01-01 00:26:06.377824'
p448
F0.67360001564
sS'2000-01-01 00:26:02.017545'
p449
F0.672799987793
sS'2000-01-01 00:25:42.065915'
p450
F0.670399990082
sS'2000-01-01 00:25:51.244143'
p451
F0.67360001564
sS'2000-01-01 00:26:09.999180'
p452
F0.672000002861
sS'2000-01-01 00:26:29.499501'
p453
F0.551999988556
sS'2000-01-01 00:26:08.511650'
p454
F0.672799987793
sS'2000-01-01 00:25:23.119154'
p455
F0.667999992371
sS'2000-01-01 00:26:24.701541'
p456
F0.552800016403
sS'2000-01-01 00:26:22.152339'
p457
F0.561599979401
sS'2000-01-01 00:25:58.591740'
p458
F0.66960000515
sS'2000-01-01 00:25:40.152866'
p459
F0.67360001564
sS'2000-01-01 00:25:39.408626'
p460
F0.672000002861
sS'2000-01-01 00:26:20.550180'
p461
F0.704799985886
sS'2000-01-01 00:25:50.705818'
p462
F0.675199985504
sS'2000-01-01 00:25:29.287393'
p463
F0.672799987793
sS'2000-01-01 00:25:25.250020'
p464
F0.667999992371
sS'2000-01-01 00:26:18.209241'
p465
F0.670399990082
sS'2000-01-01 00:26:20.019031'
p466
F0.637600007057
sS'2000-01-01 00:25:38.984359'
p467
F0.67360001564
sS'2000-01-01 00:26:09.468264'
p468
F0.672000002861
sS'2000-01-01 00:25:52.093745'
p469
F0.672799987793
sS'2000-01-01 00:26:20.442546'
p470
F0.749600000381
sS'2000-01-01 00:25:22.480763'
p471
F0.672799987793
sS'2000-01-01 00:25:30.679222'
p472
F0.672799987793
sS'2000-01-01 00:26:17.148446'
p473
F0.672799987793
sS'2000-01-01 00:25:57.528660'
p474
F0.672799987793
sS'2000-01-01 00:25:41.642102'
p475
F0.672000002861
sS'2000-01-01 00:26:22.897978'
p476
F0.553600001335
sS'2000-01-01 00:26:28.543337'
p477
F0.554399986267
sS'2000-01-01 00:25:41.535186'
p478
F0.672799987793
sS'2000-01-01 00:25:26.099564'
p479
F0.672000002861
sS'2000-01-01 00:25:25.462438'
p480
F0.672000002861
sS'2000-01-01 00:25:48.462889'
p481
F0.672799987793
sS'2000-01-01 00:25:55.827580'
p482
F0.672799987793
sS'2000-01-01 00:25:25.568371'
p483
F0.670399990082
sS'2000-01-01 00:26:12.346468'
p484
F0.672799987793
sS'2000-01-01 00:26:21.089827'
p485
F0.702399988174
sS'2000-01-01 00:25:52.306667'
p486
F0.672799987793
sS'2000-01-01 00:25:38.346112'
p487
F0.671200017929
sS'2000-01-01 00:26:03.401858'
p488
F0.672799987793
sS'2000-01-01 00:26:16.831836'
p489
F0.672799987793
sS'2000-01-01 00:25:35.257654'
p490
F0.670399990082
sS'2000-01-01 00:26:06.705351'
p491
F0.670399990082
sS'2000-01-01 00:25:25.142573'
p492
F0.671200017929
sS'2000-01-01 00:25:55.933104'
p493
F0.672000002861
sS'2000-01-01 00:26:26.517582'
p494
F0.548800005913
sS'2000-01-01 00:26:00.527111'
p495
F0.671200017929
sS'2000-01-01 00:25:47.083492'
p496
F0.671200017929
sS'2000-01-01 00:25:56.040278'
p497
F0.672799987793
sS'2000-01-01 00:25:54.655783'
p498
F0.672799987793
sS'2000-01-01 00:26:11.497575'
p499
F0.668800020218
sS'2000-01-01 00:26:14.054231'
p500
F0.672799987793
sS'2000-01-01 00:26:20.124957'
p501
F0.682399978638
sS'2000-01-01 00:26:28.755913'
p502
F0.551200003624
sS'2000-01-01 00:26:06.165526'
p503
F0.66960000515
sS'2000-01-01 00:26:27.799991'
p504
F0.552800016403
sS'2000-01-01 00:26:03.614745'
p505
F0.672000002861
sS'2000-01-01 00:26:14.697266'
p506
F0.67360001564
sS'2000-01-01 00:25:57.848749'
p507
F0.672799987793
sS'2000-01-01 00:25:30.244427'
p508
F0.672799987793
sS'2000-01-01 00:26:05.953101'
p509
F0.672799987793
sS'2000-01-01 00:25:41.110596'
p510
F0.672000002861
sS'2000-01-01 00:26:05.846612'
p511
F0.671200017929
sS'2000-01-01 00:25:53.372568'
p512
F0.672799987793
sS'2000-01-01 00:25:23.758241'
p513
F0.671200017929
sS'2000-01-01 00:25:23.012990'
p514
F0.66960000515
sS'2000-01-01 00:26:05.634190'
p515
F0.672000002861
sS'2000-01-01 00:26:15.656186'
p516
F0.672799987793
sS'2000-01-01 00:25:44.944811'
p517
F0.672799987793
sS'2000-01-01 00:25:24.077390'
p518
F0.672799987793
sS'2000-01-01 00:25:52.412347'
p519
F0.671200017929
sS'2000-01-01 00:25:29.076112'
p520
F0.670399990082
sS'2000-01-01 00:26:25.024671'
p521
F0.554399986267
sS'2000-01-01 00:25:53.160164'
p522
F0.67360001564
sS'2000-01-01 00:25:36.003229'
p523
F0.670399990082
sS'2000-01-01 00:26:03.827468'
p524
F0.67360001564
sS'2000-01-01 00:25:22.367207'
p525
F0.670399990082
sS'2000-01-01 00:26:30.137924'
p526
F0.551999988556
sS'2000-01-01 00:26:29.712378'
p527
F0.554399986267
sS'2000-01-01 00:25:49.633702'
p528
F0.67360001564
sS'2000-01-01 00:26:29.925053'
p529
F0.551999988556
sS'2000-01-01 00:26:08.831367'
p530
F0.672000002861
sS'2000-01-01 00:25:23.332735'
p531
F0.66960000515
sS'2000-01-01 00:26:22.044867'
p532
F0.76079996109
sS'2000-01-01 00:25:25.034677'
p533
F0.670399990082
sS'2000-01-01 00:26:30.244151'
p534
F0.553600001335
sS'2000-01-01 00:25:47.828133'
p535
F0.67360001564
sS'2000-01-01 00:26:25.986326'
p536
F0.555999999046
sS'2000-01-01 00:26:07.874480'
p537
F0.672799987793
sS'2000-01-01 00:25:48.888941'
p538
F0.672799987793
sS'2000-01-01 00:26:21.726100'
p539
F0.994400024414
sS'2000-01-01 00:25:45.262567'
p540
F0.671200017929
sS'2000-01-01 00:25:57.316489'
p541
F0.671200017929
sS'2000-01-01 00:25:40.791405'
p542
F0.672000002861
sS'2000-01-01 00:26:19.487105'
p543
F0.128000003099
sS'2000-01-01 00:25:43.023446'
p544
F0.672799987793
sS'2000-01-01 00:25:40.364759'
p545
F0.670399990082
sS'2000-01-01 00:25:31.744173'
p546
F0.670399990082
sS'2000-01-01 00:26:17.253912'
p547
F0.670399990082
sS'2000-01-01 00:25:43.236579'
p548
F0.672799987793
sS'2000-01-01 00:25:46.977733'
p549
F0.672799987793
sS'2000-01-01 00:25:30.573466'
p550
F0.671200017929
sS'2000-01-01 00:25:38.665834'
p551
F0.672799987793
sS'2000-01-01 00:26:14.909705'
p552
F0.67360001564
sS'2000-01-01 00:26:17.891689'
p553
F0.670399990082
sS'2000-01-01 00:25:51.030435'
p554
F0.670399990082
sS'2000-01-01 00:25:21.942543'
p555
F0.672799987793
sS'2000-01-01 00:25:28.651897'
p556
F0.672799987793
sS'2000-01-01 00:26:22.470708'
p557
F0.554399986267
sS'2000-01-01 00:25:32.275480'
p558
F0.671200017929
sS'2000-01-01 00:25:22.905746'
p559
F0.672000002861
sS'2000-01-01 00:26:25.561307'
p560
F0.552800016403
sS'2000-01-01 00:26:15.550544'
p561
F0.672799987793
sS'2000-01-01 00:25:55.401182'
p562
F0.672799987793
sS'2000-01-01 00:25:24.608535'
p563
F0.672000002861
sS'2000-01-01 00:25:30.350347'
p564
F0.67360001564
sS'2000-01-01 00:25:52.843046'
p565
F0.672799987793
sS'2000-01-01 00:26:21.620593'
p566
F0.996800022125
sS'2000-01-01 00:25:41.429199'
p567
F0.672799987793
sS'2000-01-01 00:25:28.121048'
p568
F0.671200017929
sS'2000-01-01 00:26:12.028463'
p569
F0.672799987793
sS'2000-01-01 00:25:54.436300'
p570
F0.66960000515
sS'2000-01-01 00:25:58.704582'
p571
F0.671200017929
sS'2000-01-01 00:26:22.259124'
p572
F0.549599990845
sS'2000-01-01 00:25:58.379665'
p573
F0.672000002861
sS'2000-01-01 00:25:40.897633'
p574
F0.672799987793
sS'2000-01-01 00:26:14.803890'
p575
F0.672799987793
sS'2000-01-01 00:26:10.104969'
p576
F0.672799987793
sS'2000-01-01 00:25:50.165801'
p577
F0.672799987793
sS'2000-01-01 00:26:04.146253'
p578
F0.672799987793
sS'2000-01-01 00:25:55.720666'
p579
F0.67360001564
sS'2000-01-01 00:25:46.115187'
p580
F0.671200017929
sS'2000-01-01 00:26:21.513639'
p581
F0.963199968338
sS'2000-01-01 00:26:07.554749'
p582
F0.672799987793
sS'2000-01-01 00:26:16.295230'
p583
F0.67360001564
sS'2000-01-01 00:25:57.636042'
p584
F0.672799987793
sS'2000-01-01 00:26:27.693377'
p585
F0.551999988556
sS'2000-01-01 00:26:08.086843'
p586
F0.672000002861
sS'2000-01-01 00:25:26.741625'
p587
F0.670399990082
sS'2000-01-01 00:25:54.867947'
p588
F0.66960000515
sS'2000-01-01 00:25:51.667972'
p589
F0.672799987793
sS'2000-01-01 00:26:15.335476'
p590
F0.672000002861
sS'2000-01-01 00:25:41.003438'
p591
F0.674400000572
sS'2000-01-01 00:26:10.530725'
p592
F0.672799987793
sS'2000-01-01 00:26:02.335688'
p593
F0.67360001564
sS'2000-01-01 00:25:37.392089'
p594
F0.670399990082
sS'2000-01-01 00:26:13.842561'
p595
F0.672799987793
sS'2000-01-01 00:25:39.089983'
p596
F0.672000002861
sS'2000-01-01 00:25:52.518230'
p597
F0.67360001564
sS'2000-01-01 00:26:13.206265'
p598
F0.672799987793
sS'2000-01-01 00:25:32.169428'
p599
F0.67360001564
sS'2000-01-01 00:25:53.584018'
p600
F0.672799987793
sS'2000-01-01 00:25:48.041004'
p601
F0.672799987793
sS'2000-01-01 00:25:27.058523'
p602
F0.668800020218
sS'2000-01-01 00:26:07.023686'
p603
F0.66960000515
sS'2000-01-01 00:26:06.058600'
p604
F0.672799987793
sS'2000-01-01 00:26:23.003914'
p605
F0.554399986267
sS'2000-01-01 00:25:47.509025'
p606
F0.672799987793
sS'2000-01-01 00:25:41.960455'
p607
F0.672000002861
sS'2000-01-01 00:26:25.880876'
p608
F0.553600001335
sS'2000-01-01 00:25:42.706190'
p609
F0.674400000572
sS'2000-01-01 00:25:58.916380'
p610
F0.672799987793
sS'2000-01-01 00:25:48.783210'
p611
F0.67360001564
sS'2000-01-01 00:26:21.301286'
p612
F0.769600009918
sS'2000-01-01 00:25:38.028208'
p613
F0.672799987793
sS'2000-01-01 00:25:53.903732'
p614
F0.674400000572
sS'2000-01-01 00:25:30.457855'
p615
F0.672000002861
sS'2000-01-01 00:26:17.677977'
p616
F0.66960000515
sS'2000-01-01 00:26:31.309307'
p617
F0.551200003624
sS'2000-01-01 00:25:44.510978'
p618
F0.672799987793
sS'2000-01-01 00:25:21.727922'
p619
F0.670399990082
sS'2000-01-01 00:26:31.415527'
p620
F0.553600001335
sS'2000-01-01 00:25:39.726572'
p621
F0.671200017929
sS'2000-01-01 00:25:48.357429'
p622
F0.672799987793
sS'2000-01-01 00:26:25.454927'
p623
F0.551200003624
sS'2000-01-01 00:26:20.336176'
p624
F0.748000030518
sS'2000-01-01 00:25:36.214846'
p625
F0.674400000572
sS'2000-01-01 00:25:40.258911'
p626
F0.671200017929
sS'2000-01-01 00:26:04.784641'
p627
F0.66960000515
sS'2000-01-01 00:26:12.452465'
p628
F0.672799987793
sS'2000-01-01 00:25:50.058545'
p629
F0.672799987793
sS'2000-01-01 00:25:28.545778'
p630
F0.672799987793
sS'2000-01-01 00:25:46.541777'
p631
F0.672799987793
sS'2000-01-01 00:25:44.839091'
p632
F0.672000002861
sS'2000-01-01 00:25:31.317174'
p633
F0.66960000515
sS'2000-01-01 00:26:16.188157'
p634
F0.670399990082
sS'2000-01-01 00:26:19.593139'
p635
F0.147199995518
sS'2000-01-01 00:25:39.515630'
p636
F0.674400000572
sS'2000-01-01 00:26:04.464174'
p637
F0.672799987793
sS'2000-01-01 00:25:36.862555'
p638
F0.672799987793
sS'2000-01-01 00:26:01.803872'
p639
F0.67360001564
sS'2000-01-01 00:26:19.912137'
p640
F0.560000009537
sS'2000-01-01 00:25:47.721644'
p641
F0.670399990082
sS'2000-01-01 00:25:33.974127'
p642
F0.67360001564
sS'2000-01-01 00:25:45.476577'
p643
F0.67360001564
sS'2000-01-01 00:25:27.695313'
p644
F0.66960000515
sS'2000-01-01 00:25:33.232371'
p645
F0.670399990082
sS'2000-01-01 00:26:02.548332'
p646
F0.672799987793
sS'2000-01-01 00:26:12.240504'
p647
F0.672799987793
sS'2000-01-01 00:25:28.333485'
p648
F0.671200017929
sS'2000-01-01 00:25:59.554228'
p649
F0.67360001564
sS'2000-01-01 00:25:46.658224'
p650
F0.672000002861
sS'2000-01-01 00:25:29.819633'
p651
F0.672799987793
sS'2000-01-01 00:25:29.501475'
p652
F0.66960000515
sS'2000-01-01 00:25:35.681650'
p653
F0.672000002861
sS'2000-01-01 00:25:37.922252'
p654
F0.672799987793
sS'2000-01-01 00:25:45.903493'
p655
F0.672799987793
sS'2000-01-01 00:26:06.811670'
p656
F0.675199985504
sS'2000-01-01 00:26:11.603489'
p657
F0.672000002861
sS'2000-01-01 00:25:31.530613'
p658
F0.671200017929
sS'2000-01-01 00:26:07.449197'
p659
F0.670399990082
sS'2000-01-01 00:26:27.268716'
p660
F0.548800005913
sS'2000-01-01 00:25:50.597788'
p661
F0.671200017929
sS'2000-01-01 00:25:45.583296'
p662
F0.672799987793
sS'2000-01-01 00:25:36.109382'
p663
F0.672000002861
sS'2000-01-01 00:25:42.174024'
p664
F0.67360001564
sS'2000-01-01 00:25:34.936226'
p665
F0.671200017929
sS'2000-01-01 00:26:11.921055'
p666
F0.672799987793
sS'2000-01-01 00:26:18.315557'
p667
F0.67360001564
sS'2000-01-01 00:25:47.401735'
p668
F0.672799987793
sS'2000-01-01 00:25:29.394074'
p669
F0.672799987793
sS'2000-01-01 00:26:31.733894'
p670
F0.551999988556
sS'2000-01-01 00:25:49.314461'
p671
F0.672799987793
sS'2000-01-01 00:25:31.104975'
p672
F0.672799987793
sS'2000-01-01 00:25:59.128137'
p673
F0.672000002861
sS'2000-01-01 00:26:31.203212'
p674
F0.553600001335
sS'2000-01-01 00:25:59.874137'
p675
F0.672799987793
sS'2000-01-01 00:26:12.670585'
p676
F0.672799987793
sS'2000-01-01 00:26:08.937006'
p677
F0.672799987793
ssS'Potentiometer0'
p678
(dp679
S'2000-01-01 00:25:23.707099'
p680
F0.587999997139
sS'2000-01-01 00:25:57.265913'
p681
F0.589600009918
sS'2000-01-01 00:25:30.734457'
p682
F0.588799982071
sS'2000-01-01 00:26:10.480234'
p683
F0.58639998436
sS'2000-01-01 00:25:46.277347'
p684
F0.587999997139
sS'2000-01-01 00:25:32.545806'
p685
F0.588799982071
sS'2000-01-01 00:25:35.419417'
p686
F0.587999997139
sS'2000-01-01 00:25:24.343815'
p687
F0.588799982071
sS'2000-01-01 00:26:08.566697'
p688
F0.588799982071
sS'2000-01-01 00:25:54.817131'
p689
F0.589600009918
sS'2000-01-01 00:25:31.799695'
p690
F0.58639998436
sS'2000-01-01 00:25:38.720932'
p691
F0.588799982071
sS'2000-01-01 00:26:13.155740'
p692
F0.588799982071
sS'2000-01-01 00:25:42.761721'
p693
F0.588799982071
sS'2000-01-01 00:25:51.511943'
p694
F0.588799982071
sS'2000-01-01 00:26:29.025141'
p695
F0.744800004959
sS'2000-01-01 00:25:22.103983'
p696
F0.588799982071
sS'2000-01-01 00:25:58.541017'
p697
F0.588799982071
sS'2000-01-01 00:25:59.929606'
p698
F0.589600009918
sS'2000-01-01 00:25:50.979762'
p699
F0.587200012207
sS'2000-01-01 00:26:19.436430'
p700
F0.587200012207
sS'2000-01-01 00:25:31.054679'
p701
F0.587999997139
sS'2000-01-01 00:26:19.861600'
p702
F0.588799982071
sS'2000-01-01 00:25:57.585398'
p703
F0.588799982071
sS'2000-01-01 00:26:27.642802'
p704
F0.744800004959
sS'2000-01-01 00:25:27.752911'
p705
F0.58639998436
sS'2000-01-01 00:25:42.229909'
p706
F0.588799982071
sS'2000-01-01 00:26:26.467130'
p707
F0.743200035095
sS'2000-01-01 00:25:33.605463'
p708
F0.588799982071
sS'2000-01-01 00:25:34.673828'
p709
F0.588799982071
sS'2000-01-01 00:25:22.749297'
p710
F0.58639998436
sS'2000-01-01 00:26:21.570266'
p711
F0.588799982071
sS'2000-01-01 00:26:02.714032'
p712
F0.588799982071
sS'2000-01-01 00:26:31.045226'
p713
F0.744800004959
sS'2000-01-01 00:26:22.740935'
p714
F0.581599988937
sS'2000-01-01 00:25:51.617453'
p715
F0.589600009918
sS'2000-01-01 00:25:41.910153'
p716
F0.587999997139
sS'2000-01-01 00:26:22.208486'
p717
F0.588799982071
sS'2000-01-01 00:26:31.576383'
p718
F0.740800037384
sS'2000-01-01 00:25:42.441653'
p719
F0.588799982071
sS'2000-01-01 00:26:05.795996'
p720
F0.587999997139
sS'2000-01-01 00:25:51.193392'
p721
F0.588799982071
sS'2000-01-01 00:25:58.653808'
p722
F0.589600009918
sS'2000-01-01 00:26:28.173885'
p723
F0.745600032806
sS'2000-01-01 00:25:22.962387'
p724
F0.58639998436
sS'2000-01-01 00:25:29.131126'
p725
F0.587999997139
sS'2000-01-01 00:26:23.273446'
p726
F0.588799982071
sS'2000-01-01 00:26:14.859360'
p727
F0.588799982071
sS'2000-01-01 00:26:19.222685'
p728
F0.589600009918
sS'2000-01-01 00:26:12.083945'
p729
F0.587999997139
sS'2000-01-01 00:26:02.603604'
p730
F0.588799982071
sS'2000-01-01 00:25:38.826857'
p731
F0.588799982071
sS'2000-01-01 00:26:24.545212'
p732
F0.754399995804
sS'2000-01-01 00:25:50.115177'
p733
F0.589600009918
sS'2000-01-01 00:26:14.642578'
p734
F0.589600009918
sS'2000-01-01 00:26:16.456591'
p735
F0.588799982071
sS'2000-01-01 00:26:16.137493'
p736
F0.588799982071
sS'2000-01-01 00:26:00.690727'
p737
F0.58639998436
sS'2000-01-01 00:26:01.328366'
p738
F0.587999997139
sS'2000-01-01 00:25:35.525612'
p739
F0.588799982071
sS'2000-01-01 00:26:09.098289'
p740
F0.587999997139
sS'2000-01-01 00:26:11.234382'
p741
F0.587999997139
sS'2000-01-01 00:26:15.393034'
p742
F0.588799982071
sS'2000-01-01 00:26:11.658478'
p743
F0.58639998436
sS'2000-01-01 00:25:29.662412'
p744
F0.58639998436
sS'2000-01-01 00:25:57.691401'
p745
F0.587999997139
sS'2000-01-01 00:26:23.379283'
p746
F0.56880001545
sS'2000-01-01 00:26:11.340077'
p747
F0.58639998436
sS'2000-01-01 00:26:13.261688'
p748
F0.587200012207
sS'2000-01-01 00:26:31.258612'
p749
F0.743200035095
sS'2000-01-01 00:26:23.484697'
p750
F0.492799987793
sS'2000-01-01 00:25:26.902570'
p751
F0.585599999428
sS'2000-01-01 00:26:05.370400'
p752
F0.58639998436
sS'2000-01-01 00:26:27.749192'
p753
F0.743999977112
sS'2000-01-01 00:25:52.792470'
p754
F0.588799982071
sS'2000-01-01 00:25:59.397945'
p755
F0.588799982071
sS'2000-01-01 00:26:00.264557'
p756
F0.588799982071
sS'2000-01-01 00:25:59.823416'
p757
F0.588799982071
sS'2000-01-01 00:25:21.784386'
p758
F0.588799982071
sS'2000-01-01 00:26:08.780784'
p759
F0.589600009918
sS'2000-01-01 00:26:12.615153'
p760
F0.588799982071
sS'2000-01-01 00:25:21.998031'
p761
F0.584800014496
sS'2000-01-01 00:26:31.152344'
p762
F0.743200035095
sS'2000-01-01 00:26:25.403105'
p763
F0.743999977112
sS'2000-01-01 00:25:21.146684'
p764
F0.585599999428
sS'2000-01-01 00:26:23.803861'
p765
F0.157600003481
sS'2000-01-01 00:26:29.768352'
p766
F0.743200035095
sS'2000-01-01 00:26:22.953362'
p767
F0.587200012207
sS'2000-01-01 00:26:08.461148'
p768
F0.589600009918
sS'2000-01-01 00:26:09.842530'
p769
F0.58639998436
sS'2000-01-01 00:26:17.840971'
p770
F0.588799982071
sS'2000-01-01 00:26:02.927655'
p771
F0.588799982071
sS'2000-01-01 00:25:51.724683'
p772
F0.588799982071
sS'2000-01-01 00:25:34.242941'
p773
F0.587200012207
sS'2000-01-01 00:26:11.977789'
p774
F0.588799982071
sS'2000-01-01 00:26:25.080086'
p775
F0.743200035095
sS'2000-01-01 00:25:22.210457'
p776
F0.587999997139
sS'2000-01-01 00:25:28.814447'
p777
F0.587999997139
sS'2000-01-01 00:26:05.583549'
p778
F0.588799982071
sS'2000-01-01 00:25:34.029503'
p779
F0.587999997139
sS'2000-01-01 00:26:24.762113'
p780
F0.745600032806
sS'2000-01-01 00:26:26.900317'
p781
F0.742400007248
sS'2000-01-01 00:25:29.556924'
p782
F0.58639998436
sS'2000-01-01 00:25:35.206541'
p783
F0.587999997139
sS'2000-01-01 00:26:12.401837'
p784
F0.588799982071
sS'2000-01-01 00:25:46.713699'
p785
F0.588799982071
sS'2000-01-01 00:25:50.221449'
p786
F0.588799982071
sS'2000-01-01 00:25:24.449461'
p787
F0.585599999428
sS'2000-01-01 00:25:30.299735'
p788
F0.588799982071
sS'2000-01-01 00:25:54.385699'
p789
F0.588799982071
sS'2000-01-01 00:25:26.369207'
p790
F0.58639998436
sS'2000-01-01 00:26:26.253909'
p791
F0.740800037384
sS'2000-01-01 00:26:17.733281'
p792
F0.58639998436
sS'2000-01-01 00:26:18.903853'
p793
F0.588799982071
sS'2000-01-01 00:25:48.095995'
p794
F0.587999997139
sS'2000-01-01 00:26:14.110862'
p795
F0.587200012207
sS'2000-01-01 00:25:26.156183'
p796
F0.585599999428
sS'2000-01-01 00:26:05.476558'
p797
F0.588799982071
sS'2000-01-01 00:25:28.920170'
p798
F0.588799982071
sS'2000-01-01 00:25:21.040968'
p799
F0.58639998436
sS'2000-01-01 00:26:20.826261'
p800
F0.58639998436
sS'2000-01-01 00:26:09.629187'
p801
F0.588799982071
sS'2000-01-01 00:25:50.008020'
p802
F0.588799982071
sS'2000-01-01 00:25:40.846835'
p803
F0.58639998436
sS'2000-01-01 00:26:21.144790'
p804
F0.588799982071
sS'2000-01-01 00:26:29.236800'
p805
F0.743200035095
sS'2000-01-01 00:25:51.299541'
p806
F0.588799982071
sS'2000-01-01 00:26:00.157076'
p807
F0.588799982071
sS'2000-01-01 00:25:24.663989'
p808
F0.587200012207
sS'2000-01-01 00:26:31.789441'
p809
F0.745600032806
sS'2000-01-01 00:26:00.582774'
p810
F0.588799982071
sS'2000-01-01 00:25:25.305474'
p811
F0.58639998436
sS'2000-01-01 00:25:39.782730'
p812
F0.588799982071
sS'2000-01-01 00:26:18.689771'
p813
F0.58639998436
sS'2000-01-01 00:25:28.601562'
p814
F0.587200012207
sS'2000-01-01 00:26:12.942349'
p815
F0.58639998436
sS'2000-01-01 00:25:21.571383'
p816
F0.588799982071
sS'2000-01-01 00:26:23.590115'
p817
F0.185600001812
sS'2000-01-01 00:25:26.048804'
p818
F0.58639998436
sS'2000-01-01 00:25:33.498343'
p819
F0.588799982071
sS'2000-01-01 00:25:59.291879'
p820
F0.587200012207
sS'2000-01-01 00:25:48.412412'
p821
F0.588799982071
sS'2000-01-01 00:26:14.322955'
p822
F0.589600009918
sS'2000-01-01 00:25:24.238362'
p823
F0.587999997139
sS'2000-01-01 00:25:28.707273'
p824
F0.587200012207
sS'2000-01-01 00:26:09.948445'
p825
F0.58639998436
sS'2000-01-01 00:26:09.523665'
p826
F0.58639998436
sS'2000-01-01 00:25:23.495530'
p827
F0.588799982071
sS'2000-01-01 00:25:32.119104'
p828
F0.58639998436
sS'2000-01-01 00:25:39.996111'
p829
F0.58639998436
sS'2000-01-01 00:26:23.910115'
p830
F0.159199994802
sS'2000-01-01 00:25:38.402592'
p831
F0.588799982071
sS'2000-01-01 00:25:57.371964'
p832
F0.588799982071
sS'2000-01-01 00:26:03.776853'
p833
F0.588799982071
sS'2000-01-01 00:25:25.625003'
p834
F0.587200012207
sS'2000-01-01 00:26:08.672754'
p835
F0.589600009918
sS'2000-01-01 00:26:23.059383'
p836
F0.577600021362
sS'2000-01-01 00:26:20.074435'
p837
F0.588799982071
sS'2000-01-01 00:25:33.923832'
p838
F0.588799982071
sS'2000-01-01 00:26:04.945521'
p839
F0.58639998436
sS'2000-01-01 00:25:32.436673'
p840
F0.587999997139
sS'2000-01-01 00:25:42.015663'
p841
F0.588799982071
sS'2000-01-01 00:25:27.859380'
p842
F0.58639998436
sS'2000-01-01 00:26:27.217946'
p843
F0.741599979401
sS'2000-01-01 00:26:16.350431'
p844
F0.587999997139
sS'2000-01-01 00:25:55.030743'
p845
F0.588799982071
sS'2000-01-01 00:25:34.136284'
p846
F0.58639998436
sS'2000-01-01 00:25:24.878133'
p847
F0.58639998436
sS'2000-01-01 00:26:05.052725'
p848
F0.58639998436
sS'2000-01-01 00:25:35.313258'
p849
F0.588799982071
sS'2000-01-01 00:25:49.583111'
p850
F0.588799982071
sS'2000-01-01 00:26:22.420123'
p851
F0.59039999485
sS'2000-01-01 00:25:56.841707'
p852
F0.588799982071
sS'2000-01-01 00:26:29.556178'
p853
F0.745600032806
sS'2000-01-01 00:25:20.087389'
p854
F0.583200001717
sS'2000-01-01 00:26:24.439738'
p855
F0.724799995422
sS'2000-01-01 00:25:55.670140'
p856
F0.588799982071
sS'2000-01-01 00:26:21.888668'
p857
F0.588799982071
sS'2000-01-01 00:25:46.607243'
p858
F0.589600009918
sS'2000-01-01 00:25:55.458440'
p859
F0.588799982071
sS'2000-01-01 00:26:21.675837'
p860
F0.589600009918
sS'2000-01-01 00:25:58.329035'
p861
F0.588799982071
sS'2000-01-01 00:26:11.870339'
p862
F0.588799982071
sS'2000-01-01 00:25:25.091797'
p863
F0.587999997139
sS'2000-01-01 00:26:05.263918'
p864
F0.587999997139
sS'2000-01-01 00:25:27.113573'
p865
F0.58639998436
sS'2000-01-01 00:25:48.201472'
p866
F0.588799982071
sS'2000-01-01 00:26:28.811672'
p867
F0.744800004959
sS'2000-01-01 00:25:30.193790'
p868
F0.588799982071
sS'2000-01-01 00:26:03.882820'
p869
F0.589600009918
sS'2000-01-01 00:25:31.905751'
p870
F0.588799982071
sS'2000-01-01 00:25:33.817614'
p871
F0.584800014496
sS'2000-01-01 00:26:02.285210'
p872
F0.588799982071
sS'2000-01-01 00:26:02.072533'
p873
F0.587999997139
sS'2000-01-01 00:26:04.201676'
p874
F0.588799982071
sS'2000-01-01 00:25:40.527342'
p875
F0.587999997139
sS'2000-01-01 00:25:28.388689'
p876
F0.58639998436
sS'2000-01-01 00:25:23.919937'
p877
F0.58639998436
sS'2000-01-01 00:26:24.228515'
p878
F0.592799992561
sS'2000-01-01 00:25:24.026878'
p879
F0.58639998436
sS'2000-01-01 00:26:30.193593'
p880
F0.743200035095
sS'2000-01-01 00:25:26.263602'
p881
F0.584800014496
sS'2000-01-01 00:25:31.480000'
p882
F0.58639998436
sS'2000-01-01 00:26:06.760913'
p883
F0.58639998436
sS'2000-01-01 00:25:57.054685'
p884
F0.58639998436
sS'2000-01-01 00:25:51.406264'
p885
F0.587999997139
sS'2000-01-01 00:25:30.407153'
p886
F0.58639998436
sS'2000-01-01 00:25:49.475698'
p887
F0.589600009918
sS'2000-01-01 00:25:25.411607'
p888
F0.587999997139
sS'2000-01-01 00:26:08.249408'
p889
F0.588799982071
sS'2000-01-01 00:25:19.890369'
p890
F0.583200001717
sS'2000-01-01 00:25:58.117185'
p891
F0.588799982071
sS'2000-01-01 00:25:42.335942'
p892
F0.587200012207
sS'2000-01-01 00:25:35.097926'
p893
F0.588799982071
sS'2000-01-01 00:26:07.929692'
p894
F0.589600009918
sS'2000-01-01 00:25:34.885503'
p895
F0.58639998436
sS'2000-01-01 00:25:37.447334'
p896
F0.587200012207
sS'2000-01-01 00:25:27.327064'
p897
F0.584800014496
sS'2000-01-01 00:25:44.574537'
p898
F0.585599999428
sS'2000-01-01 00:26:15.285162'
p899
F0.588799982071
sS'2000-01-01 00:26:09.203921'
p900
F0.588799982071
sS'2000-01-01 00:25:32.969122'
p901
F0.589600009918
sS'2000-01-01 00:25:57.478012'
p902
F0.589600009918
sS'2000-01-01 00:25:56.627445'
p903
F0.585599999428
sS'2000-01-01 00:26:16.668806'
p904
F0.588799982071
sS'2000-01-01 00:26:06.221063'
p905
F0.588799982071
sS'2000-01-01 00:25:47.138913'
p906
F0.588799982071
sS'2000-01-01 00:25:49.688951'
p907
F0.588799982071
sS'2000-01-01 00:26:30.406169'
p908
F0.743200035095
sS'2000-01-01 00:25:23.281988'
p909
F0.585599999428
sS'2000-01-01 00:25:40.208167'
p910
F0.585599999428
sS'2000-01-01 00:26:15.605686'
p911
F0.588799982071
sS'2000-01-01 00:26:21.039308'
p912
F0.587999997139
sS'2000-01-01 00:25:25.517869'
p913
F0.58639998436
sS'2000-01-01 00:26:07.292976'
p914
F0.587200012207
sS'2000-01-01 00:26:08.142115'
p915
F0.588799982071
sS'2000-01-01 00:25:55.882817'
p916
F0.587200012207
sS'2000-01-01 00:25:27.221072'
p917
F0.58639998436
sS'2000-01-01 00:25:37.341798'
p918
F0.58639998436
sS'2000-01-01 00:25:44.140862'
p919
F0.587999997139
sS'2000-01-01 00:25:50.433892'
p920
F0.588799982071
sS'2000-01-01 00:26:21.250729'
p921
F0.589600009918
sS'2000-01-01 00:26:27.962381'
p922
F0.744800004959
sS'2000-01-01 00:25:47.564413'
p923
F0.588799982071
sS'2000-01-01 00:25:54.491682'
p924
F0.588799982071
sS'2000-01-01 00:26:03.564460'
p925
F0.589600009918
sS'2000-01-01 00:25:32.863616'
p926
F0.587999997139
sS'2000-01-01 00:26:09.735046'
p927
F0.58639998436
sS'2000-01-01 00:26:25.510609'
p928
F0.743200035095
sS'2000-01-01 00:26:10.808072'
p929
F0.588799982071
sS'2000-01-01 00:26:19.648441'
p930
F0.588799982071
sS'2000-01-01 00:26:04.733880'
p931
F0.588799982071
sS'2000-01-01 00:25:21.252248'
p932
F0.587200012207
sS'2000-01-01 00:25:52.361965'
p933
F0.588799982071
sS'2000-01-01 00:25:55.244149'
p934
F0.587999997139
sS'2000-01-01 00:26:13.580048'
p935
F0.587999997139
sS'2000-01-01 00:25:54.711278'
p936
F0.589600009918
sS'2000-01-01 00:25:46.385040'
p937
F0.588799982071
sS'2000-01-01 00:25:20.828856'
p938
F0.58639998436
sS'2000-01-01 00:26:27.537104'
p939
F0.740800037384
sS'2000-01-01 00:25:54.924704'
p940
F0.589600009918
sS'2000-01-01 00:26:06.433680'
p941
F0.58639998436
sS'2000-01-01 00:26:20.391437'
p942
F0.588799982071
sS'2000-01-01 00:25:51.831215'
p943
F0.588799982071
sS'2000-01-01 00:25:54.601672'
p944
F0.587999997139
sS'2000-01-01 00:25:56.413579'
p945
F0.588799982071
sS'2000-01-01 00:25:36.164364'
p946
F0.588799982071
sS'2000-01-01 00:25:36.483163'
p947
F0.587999997139
sS'2000-01-01 00:25:57.160371'
p948
F0.58639998436
sS'2000-01-01 00:25:21.892001'
p949
F0.587999997139
sS'2000-01-01 00:25:32.652353'
p950
F0.587999997139
sS'2000-01-01 00:25:31.372566'
p951
F0.587999997139
sS'2000-01-01 00:26:22.314471'
p952
F0.589600009918
sS'2000-01-01 00:25:34.779696'
p953
F0.588799982071
sS'2000-01-01 00:25:58.971792'
p954
F0.587999997139
sS'2000-01-01 00:26:24.651103'
p955
F0.746399974823
sS'2000-01-01 00:26:16.781256'
p956
F0.589600009918
sS'2000-01-01 00:26:19.115458'
p957
F0.588799982071
sS'2000-01-01 00:26:02.820315'
p958
F0.587200012207
sS'2000-01-01 00:26:01.540974'
p959
F0.587999997139
sS'2000-01-01 00:25:43.397930'
p960
F0.584800014496
sS'2000-01-01 00:25:22.537129'
p961
F0.58639998436
sS'2000-01-01 00:26:01.221003'
p962
F0.588799982071
sS'2000-01-01 00:26:06.867174'
p963
F0.588799982071
sS'2000-01-01 00:26:17.097991'
p964
F0.588799982071
sS'2000-01-01 00:25:45.105937'
p965
F0.587200012207
sS'2000-01-01 00:25:43.185880'
p966
F0.588799982071
sS'2000-01-01 00:25:56.520990'
p967
F0.587999997139
sS'2000-01-01 00:26:10.054660'
p968
F0.588799982071
sS'2000-01-01 00:26:21.462853'
p969
F0.588799982071
sS'2000-01-01 00:26:15.500072'
p970
F0.58639998436
sS'2000-01-01 00:25:59.185307'
p971
F0.589600009918
sS'2000-01-01 00:25:49.369815'
p972
F0.588799982071
sS'2000-01-01 00:26:18.584053'
p973
F0.588799982071
sS'2000-01-01 00:26:30.939768'
p974
F0.742400007248
sS'2000-01-01 00:25:37.129206'
p975
F0.588799982071
sS'2000-01-01 00:25:57.798002'
p976
F0.588799982071
sS'2000-01-01 00:25:52.043218'
p977
F0.588799982071
sS'2000-01-01 00:25:36.271485'
p978
F0.587200012207
sS'2000-01-01 00:26:01.966786'
p979
F0.58639998436
sS'2000-01-01 00:26:19.542471'
p980
F0.588799982071
sS'2000-01-01 00:25:49.157708'
p981
F0.588799982071
sS'2000-01-01 00:26:04.520933'
p982
F0.589600009918
sS'2000-01-01 00:25:44.460399'
p983
F0.589600009918
sS'2000-01-01 00:25:37.023690'
p984
F0.587200012207
sS'2000-01-01 00:25:50.873376'
p985
F0.58639998436
sS'2000-01-01 00:25:32.013170'
p986
F0.588799982071
sS'2000-01-01 00:26:04.095650'
p987
F0.589600009918
sS'2000-01-01 00:25:56.733918'
p988
F0.588799982071
sS'2000-01-01 00:25:38.295617'
p989
F0.588799982071
sS'2000-01-01 00:25:37.553025'
p990
F0.588799982071
sS'2000-01-01 00:26:14.429673'
p991
F0.584800014496
sS'2000-01-01 00:26:07.398673'
p992
F0.588799982071
sS'2000-01-01 00:26:08.992377'
p993
F0.587200012207
sS'2000-01-01 00:26:13.049629'
p994
F0.587200012207
sS'2000-01-01 00:26:25.935882'
p995
F0.745600032806
sS'2000-01-01 00:25:33.711133'
p996
F0.589600009918
sS'2000-01-01 00:26:13.897942'
p997
F0.588799982071
sS'2000-01-01 00:25:37.764147'
p998
F0.587999997139
sS'2000-01-01 00:26:13.473306'
p999
F0.588799982071
sS'2000-01-01 00:25:30.087960'
p1000
F0.588799982071
sS'2000-01-01 00:26:28.492873'
p1001
F0.746399974823
sS'2000-01-01 00:26:09.311708'
p1002
F0.589600009918
sS'2000-01-01 00:25:53.322278'
p1003
F0.588799982071
sS'2000-01-01 00:25:53.853080'
p1004
F0.588799982071
sS'2000-01-01 00:25:54.278454'
p1005
F0.58639998436
sS'2000-01-01 00:25:32.224925'
p1006
F0.587999997139
sS'2000-01-01 00:25:39.252302'
p1007
F0.588799982071
sS'2000-01-01 00:25:29.025657'
p1008
F0.58639998436
sS'2000-01-01 00:25:50.539792'
p1009
F0.58639998436
sS'2000-01-01 00:26:01.434770'
p1010
F0.588799982071
sS'2000-01-01 00:25:34.349107'
p1011
F0.58639998436
sS'2000-01-01 00:26:01.753111'
p1012
F0.58639998436
sS'2000-01-01 00:26:25.616717'
p1013
F0.745600032806
sS'2000-01-01 00:25:36.704601'
p1014
F0.588799982071
sS'2000-01-01 00:26:27.324220'
p1015
F0.740800037384
sS'2000-01-01 00:25:47.777654'
p1016
F0.588799982071
sS'2000-01-01 00:25:35.739108'
p1017
F0.58639998436
sS'2000-01-01 00:26:01.115516'
p1018
F0.588799982071
sS'2000-01-01 00:25:31.586755'
p1019
F0.587200012207
sS'2000-01-01 00:25:20.296874'
p1020
F0.58639998436
sS'2000-01-01 00:26:17.521534'
p1021
F0.587999997139
sS'2000-01-01 00:26:06.654341'
p1022
F0.587999997139
sS'2000-01-01 00:25:26.583175'
p1023
F0.58639998436
sS'2000-01-01 00:25:20.189467'
p1024
F0.583999986649
sS'2000-01-01 00:26:26.792975'
p1025
F0.740000009537
sS'2000-01-01 00:26:15.819723'
p1026
F0.588799982071
sS'2000-01-01 00:26:11.127006'
p1027
F0.58639998436
sS'2000-01-01 00:25:20.721177'
p1028
F0.58639998436
sS'2000-01-01 00:26:05.158302'
p1029
F0.58639998436
sS'2000-01-01 00:25:35.631161'
p1030
F0.58639998436
sS'2000-01-01 00:25:55.564449'
p1031
F0.588799982071
sS'2000-01-01 00:25:43.291936'
p1032
F0.588799982071
sS'2000-01-01 00:26:06.008116'
p1033
F0.588799982071
sS'2000-01-01 00:26:14.753219'
p1034
F0.588799982071
sS'2000-01-01 00:25:54.172261'
p1035
F0.588799982071
sS'2000-01-01 00:25:30.840965'
p1036
F0.587200012207
sS'2000-01-01 00:26:01.646842'
p1037
F0.588799982071
sS'2000-01-01 00:26:10.266361'
p1038
F0.587200012207
sS'2000-01-01 00:26:19.755627'
p1039
F0.585599999428
sS'2000-01-01 00:25:26.475381'
p1040
F0.585599999428
sS'2000-01-01 00:26:07.186505'
p1041
F0.587999997139
sS'2000-01-01 00:26:03.670294'
p1042
F0.589600009918
sS'2000-01-01 00:25:44.353880'
p1043
F0.588799982071
sS'2000-01-01 00:25:58.010113'
p1044
F0.588799982071
sS'2000-01-01 00:25:53.427985'
p1045
F0.589600009918
sS'2000-01-01 00:25:23.175806'
p1046
F0.58639998436
sS'2000-01-01 00:26:02.498045'
p1047
F0.587999997139
sS'2000-01-01 00:26:19.009768'
p1048
F0.587999997139
sS'2000-01-01 00:26:28.917942'
p1049
F0.742400007248
sS'2000-01-01 00:25:30.948674'
p1050
F0.587200012207
sS'2000-01-01 00:25:43.609609'
p1051
F0.588799982071
sS'2000-01-01 00:26:10.160361'
p1052
F0.584800014496
sS'2000-01-01 00:25:28.494401'
p1053
F0.587200012207
sS'2000-01-01 00:25:42.122545'
p1054
F0.588799982071
sS'2000-01-01 00:25:56.306880'
p1055
F0.587200012207
sS'2000-01-01 00:26:18.052954'
p1056
F0.58639998436
sS'2000-01-01 00:25:22.855383'
p1057
F0.587999997139
sS'2000-01-01 00:25:46.170919'
p1058
F0.587999997139
sS'2000-01-01 00:25:39.465164'
p1059
F0.588799982071
sS'2000-01-01 00:26:17.947167'
p1060
F0.587999997139
sS'2000-01-01 00:25:29.768827'
p1061
F0.587999997139
sS'2000-01-01 00:25:42.867536'
p1062
F0.589600009918
sS'2000-01-01 00:25:26.796893'
p1063
F0.587200012207
sS'2000-01-01 00:25:36.377246'
p1064
F0.58639998436
sS'2000-01-01 00:26:04.626881'
p1065
F0.588799982071
sS'2000-01-01 00:25:49.051623'
p1066
F0.588799982071
sS'2000-01-01 00:25:29.450358'
p1067
F0.587999997139
sS'2000-01-01 00:25:32.758177'
p1068
F0.588799982071
sS'2000-01-01 00:25:58.865920'
p1069
F0.588799982071
sS'2000-01-01 00:25:54.065338'
p1070
F0.58639998436
sS'2000-01-01 00:25:43.823396'
p1071
F0.587999997139
sS'2000-01-01 00:26:24.015921'
p1072
F0.237600009441
sS'2000-01-01 00:26:27.005946'
p1073
F0.742400007248
sS'2000-01-01 00:26:04.307699'
p1074
F0.588799982071
sS'2000-01-01 00:25:28.283196'
p1075
F0.587999997139
sS'2000-01-01 00:25:53.745614'
p1076
F0.58639998436
sS'2000-01-01 00:25:53.533492'
p1077
F0.588799982071
sS'2000-01-01 00:25:29.236827'
p1078
F0.588799982071
sS'2000-01-01 00:25:39.888877'
p1079
F0.585599999428
sS'2000-01-01 00:25:40.101764'
p1080
F0.587999997139
sS'2000-01-01 00:25:47.458445'
p1081
F0.58639998436
sS'2000-01-01 00:25:41.591789'
p1082
F0.58639998436
sS'2000-01-01 00:26:16.244773'
p1083
F0.589600009918
sS'2000-01-01 00:26:14.964921'
p1084
F0.589600009918
sS'2000-01-01 00:25:43.716721'
p1085
F0.58639998436
sS'2000-01-01 00:26:03.138954'
p1086
F0.588799982071
sS'2000-01-01 00:26:09.417946'
p1087
F0.588799982071
sS'2000-01-01 00:25:21.465543'
p1088
F0.58639998436
sS'2000-01-01 00:25:39.145552'
p1089
F0.583999986649
sS'2000-01-01 00:26:03.033410'
p1090
F0.588799982071
sS'2000-01-01 00:26:10.374100'
p1091
F0.588799982071
sS'2000-01-01 00:26:24.868118'
p1092
F0.746399974823
sS'2000-01-01 00:25:58.760007'
p1093
F0.588799982071
sS'2000-01-01 00:25:25.730692'
p1094
F0.588799982071
sS'2000-01-01 00:26:18.264733'
p1095
F0.587999997139
sS'2000-01-01 00:26:26.147258'
p1096
F0.746399974823
sS'2000-01-01 00:25:44.035206'
p1097
F0.58639998436
sS'2000-01-01 00:25:40.420136'
p1098
F0.588799982071
sS'2000-01-01 00:25:38.933863'
p1099
F0.589600009918
sS'2000-01-01 00:25:44.681151'
p1100
F0.58639998436
sS'2000-01-01 00:25:20.402597'
p1101
F0.588799982071
sS'2000-01-01 00:26:00.476609'
p1102
F0.589600009918
sS'2000-01-01 00:26:31.470773'
p1103
F0.744800004959
sS'2000-01-01 00:26:29.662105'
p1104
F0.743200035095
sS'2000-01-01 00:26:06.973289'
p1105
F0.584800014496
sS'2000-01-01 00:25:21.677232'
p1106
F0.587999997139
sS'2000-01-01 00:25:27.539082'
p1107
F0.58639998436
sS'2000-01-01 00:25:38.189704'
p1108
F0.588799982071
sS'2000-01-01 00:25:31.160237'
p1109
F0.58639998436
sS'2000-01-01 00:25:28.176072'
p1110
F0.58639998436
sS'2000-01-01 00:26:26.678017'
p1111
F0.742400007248
sS'2000-01-01 00:26:22.525684'
p1112
F0.588799982071
sS'2000-01-01 00:26:28.279551'
p1113
F0.745600032806
sS'2000-01-01 00:25:26.690812'
p1114
F0.58639998436
sS'2000-01-01 00:25:40.953129'
p1115
F0.588799982071
sS'2000-01-01 00:25:42.547223'
p1116
F0.588799982071
sS'2000-01-01 00:25:48.306931'
p1117
F0.587999997139
sS'2000-01-01 00:25:20.509786'
p1118
F0.58639998436
sS'2000-01-01 00:25:22.316627'
p1119
F0.58639998436
sS'2000-01-01 00:25:37.871788'
p1120
F0.588799982071
sS'2000-01-01 00:26:05.689455'
p1121
F0.587200012207
sS'2000-01-01 00:26:07.824004'
p1122
F0.588799982071
sS'2000-01-01 00:26:29.130815'
p1123
F0.745600032806
sS'2000-01-01 00:26:28.598597'
p1124
F0.745600032806
sS'2000-01-01 00:25:43.929589'
p1125
F0.588799982071
sS'2000-01-01 00:26:01.009776'
p1126
F0.587999997139
sS'2000-01-01 00:26:17.310535'
p1127
F0.588799982071
sS'2000-01-01 00:25:59.077630'
p1128
F0.587999997139
sS'2000-01-01 00:25:56.095700'
p1129
F0.589600009918
sS'2000-01-01 00:25:33.287404'
p1130
F0.588799982071
sS'2000-01-01 00:25:34.566426'
p1131
F0.58639998436
sS'2000-01-01 00:26:30.726801'
p1132
F0.742400007248
sS'2000-01-01 00:26:21.994361'
p1133
F0.587999997139
sS'2000-01-01 00:25:36.598402'
p1134
F0.588799982071
sS'2000-01-01 00:25:59.609437'
p1135
F0.589600009918
sS'2000-01-01 00:26:04.413567'
p1136
F0.587999997139
sS'2000-01-01 00:25:29.982346'
p1137
F0.587999997139
sS'2000-01-01 00:25:53.109708'
p1138
F0.588799982071
sS'2000-01-01 00:25:37.234846'
p1139
F0.58639998436
sS'2000-01-01 00:25:52.573446'
p1140
F0.588799982071
sS'2000-01-01 00:26:07.504356'
p1141
F0.588799982071
sS'2000-01-01 00:25:45.426034'
p1142
F0.58639998436
sS'2000-01-01 00:26:12.836619'
p1143
F0.589600009918
sS'2000-01-01 00:25:50.763075'
p1144
F0.584800014496
sS'2000-01-01 00:26:29.980435'
p1145
F0.743200035095
sS'2000-01-01 00:26:25.722634'
p1146
F0.746399974823
sS'2000-01-01 00:26:26.572555'
p1147
F0.743200035095
sS'2000-01-01 00:25:38.508544'
p1148
F0.58639998436
sS'2000-01-01 00:26:03.245558'
p1149
F0.587999997139
sS'2000-01-01 00:26:18.796888'
p1150
F0.587200012207
sS'2000-01-01 00:25:40.740596'
p1151
F0.588799982071
sS'2000-01-01 00:25:19.989253'
p1152
F0.583200001717
sS'2000-01-01 00:25:43.503902'
p1153
F0.588799982071
sS'2000-01-01 00:26:14.535370'
p1154
F0.588799982071
sS'2000-01-01 00:26:13.791948'
p1155
F0.587999997139
sS'2000-01-01 00:26:04.839944'
p1156
F0.588799982071
sS'2000-01-01 00:25:41.378328'
p1157
F0.587999997139
sS'2000-01-01 00:26:31.365001'
p1158
F0.743200035095
sS'2000-01-01 00:26:13.367530'
p1159
F0.585599999428
sS'2000-01-01 00:26:26.041291'
p1160
F0.748000030518
sS'2000-01-01 00:25:53.004213'
p1161
F0.588799982071
sS'2000-01-01 00:26:08.886723'
p1162
F0.588799982071
sS'2000-01-01 00:26:27.855469'
p1163
F0.745600032806
sS'2000-01-01 00:26:28.704584'
p1164
F0.744800004959
sS'2000-01-01 00:26:12.509226'
p1165
F0.587999997139
sS'2000-01-01 00:25:53.215139'
p1166
F0.588799982071
sS'2000-01-01 00:25:31.266479'
p1167
F0.58639998436
sS'2000-01-01 00:26:21.356413'
p1168
F0.588799982071
sS'2000-01-01 00:26:20.499478'
p1169
F0.588799982071
sS'2000-01-01 00:25:35.845703'
p1170
F0.58639998436
sS'2000-01-01 00:26:29.342685'
p1171
F0.741599979401
sS'2000-01-01 00:25:40.634776'
p1172
F0.587200012207
sS'2000-01-01 00:25:44.894508'
p1173
F0.589600009918
sS'2000-01-01 00:25:59.503908'
p1174
F0.588799982071
sS'2000-01-01 00:26:12.730293'
p1175
F0.589600009918
sS'2000-01-01 00:26:18.372321'
p1176
F0.587200012207
sS'2000-01-01 00:25:52.256159'
p1177
F0.588799982071
sS'2000-01-01 00:25:38.615295'
p1178
F0.588799982071
sS'2000-01-01 00:25:41.166072'
p1179
F0.587999997139
sS'2000-01-01 00:26:20.179996'
p1180
F0.589600009918
sS'2000-01-01 00:25:43.078412'
p1181
F0.588799982071
sS'2000-01-01 00:26:30.087386'
p1182
F0.743200035095
sS'2000-01-01 00:26:25.294418'
p1183
F0.745600032806
sS'2000-01-01 00:25:38.083494'
p1184
F0.587200012207
sS'2000-01-01 00:26:24.334212'
p1185
F0.683999991417
sS'2000-01-01 00:25:45.638681'
p1186
F0.58639998436
sS'2000-01-01 00:25:47.033109'
p1187
F0.588799982071
sS'2000-01-01 00:25:48.838544'
p1188
F0.58639998436
sS'2000-01-01 00:26:23.166842'
p1189
F0.589600009918
sS'2000-01-01 00:25:53.958996'
p1190
F0.588799982071
sS'2000-01-01 00:25:23.388170'
p1191
F0.588799982071
sS'2000-01-01 00:25:58.223004'
p1192
F0.588799982071
sS'2000-01-01 00:25:44.248341'
p1193
F0.588799982071
sS'2000-01-01 00:25:53.639348'
p1194
F0.588799982071
sS'2000-01-01 00:25:33.392889'
p1195
F0.588799982071
sS'2000-01-01 00:26:30.513670'
p1196
F0.740800037384
sS'2000-01-01 00:25:48.626447'
p1197
F0.588799982071
sS'2000-01-01 00:26:30.621019'
p1198
F0.742400007248
sS'2000-01-01 00:26:17.203443'
p1199
F0.589600009918
sS'2000-01-01 00:25:49.795853'
p1200
F0.589600009918
sS'2000-01-01 00:25:23.601549'
p1201
F0.58639998436
sS'2000-01-01 00:26:14.217035'
p1202
F0.588799982071
sS'2000-01-01 00:25:51.085940'
p1203
F0.588799982071
sS'2000-01-01 00:25:35.952627'
p1204
F0.584800014496
sS'2000-01-01 00:26:08.036260'
p1205
F0.58639998436
sS'2000-01-01 00:26:20.605469'
p1206
F0.588799982071
sS'2000-01-01 00:26:20.932306'
p1207
F0.587999997139
sS'2000-01-01 00:26:10.585957'
p1208
F0.58639998436
sS'2000-01-01 00:25:24.771619'
p1209
F0.58639998436
sS'2000-01-01 00:26:05.901838'
p1210
F0.58639998436
sS'2000-01-01 00:25:45.000242'
p1211
F0.58639998436
sS'2000-01-01 00:25:52.898435'
p1212
F0.587999997139
sS'2000-01-01 00:26:12.295843'
p1213
F0.58639998436
sS'2000-01-01 00:26:15.178887'
p1214
F0.589600009918
sS'2000-01-01 00:25:50.655045'
p1215
F0.588799982071
sS'2000-01-01 00:25:41.803930'
p1216
F0.589600009918
sS'2000-01-01 00:25:56.201175'
p1217
F0.587200012207
sS'2000-01-01 00:25:28.070594'
p1218
F0.588799982071
sS'2000-01-01 00:26:30.299554'
p1219
F0.742400007248
sS'2000-01-01 00:26:15.925755'
p1220
F0.588799982071
sS'2000-01-01 00:25:47.245003'
p1221
F0.587999997139
sS'2000-01-01 00:26:14.003919'
p1222
F0.588799982071
sS'2000-01-01 00:25:40.314432'
p1223
F0.58639998436
sS'2000-01-01 00:25:27.433563'
p1224
F0.58639998436
sS'2000-01-01 00:25:27.965155'
p1225
F0.587999997139
sS'2000-01-01 00:25:46.490991'
p1226
F0.588799982071
sS'2000-01-01 00:25:55.350467'
p1227
F0.588799982071
sS'2000-01-01 00:26:24.974122'
p1228
F0.74720000267
sS'2000-01-01 00:26:25.830347'
p1229
F0.744800004959
sS'2000-01-01 00:25:36.811998'
p1230
F0.588799982071
sS'2000-01-01 00:26:16.031509'
p1231
F0.588799982071
sS'2000-01-01 00:26:24.121438'
p1232
F0.367199993134
sS'2000-01-01 00:25:36.917965'
p1233
F0.588799982071
sS'2000-01-01 00:25:48.732504'
p1234
F0.588799982071
sS'2000-01-01 00:25:41.697478'
p1235
F0.58639998436
sS'2000-01-01 00:25:22.643255'
p1236
F0.585599999428
sS'2000-01-01 00:26:10.916017'
p1237
F0.588799982071
sS'2000-01-01 00:26:17.416095'
p1238
F0.589600009918
sS'2000-01-01 00:26:02.392331'
p1239
F0.587999997139
sS'2000-01-01 00:26:07.078938'
p1240
F0.589600009918
sS'2000-01-01 00:25:22.423832'
p1241
F0.587999997139
sS'2000-01-01 00:25:27.644785'
p1242
F0.58639998436
sS'2000-01-01 00:26:29.448711'
p1243
F0.743200035095
sS'2000-01-01 00:26:20.285806'
p1244
F0.588799982071
sS'2000-01-01 00:26:19.329061'
p1245
F0.588799982071
sS'2000-01-01 00:26:17.627148'
p1246
F0.587999997139
sS'2000-01-01 00:26:26.361081'
p1247
F0.743200035095
sS'2000-01-01 00:25:41.272174'
p1248
F0.587200012207
sS'2000-01-01 00:25:29.876405'
p1249
F0.58639998436
sS'2000-01-01 00:26:15.712887'
p1250
F0.589600009918
sS'2000-01-01 00:25:45.211657'
p1251
F0.588799982071
sS'2000-01-01 00:26:13.685756'
p1252
F0.588799982071
sS'2000-01-01 00:25:46.064647'
p1253
F0.589600009918
sS'2000-01-01 00:25:30.522028'
p1254
F0.588799982071
sS'2000-01-01 00:25:44.788540'
p1255
F0.58639998436
sS'2000-01-01 00:25:20.934765'
p1256
F0.584800014496
sS'2000-01-01 00:25:56.947363'
p1257
F0.587999997139
sS'2000-01-01 00:26:20.718289'
p1258
F0.588799982071
sS'2000-01-01 00:25:34.991407'
p1259
F0.588799982071
sS'2000-01-01 00:26:11.764233'
p1260
F0.587200012207
sS'2000-01-01 00:26:18.158491'
p1261
F0.588799982071
sS'2000-01-01 00:25:55.776847'
p1262
F0.589600009918
sS'2000-01-01 00:26:21.782648'
p1263
F0.588799982071
sS'2000-01-01 00:26:22.101570'
p1264
F0.587999997139
sS'2000-01-01 00:26:28.385498'
p1265
F0.743200035095
sS'2000-01-01 00:25:48.944206'
p1266
F0.588799982071
sS'2000-01-01 00:25:45.319824'
p1267
F0.587999997139
sS'2000-01-01 00:26:07.610055'
p1268
F0.588799982071
sS'2000-01-01 00:25:45.958959'
p1269
F0.58639998436
sS'2000-01-01 00:25:55.137599'
p1270
F0.588799982071
sS'2000-01-01 00:25:46.927229'
p1271
F0.589600009918
sS'2000-01-01 00:25:45.532713'
p1272
F0.588799982071
sS'2000-01-01 00:26:00.050290'
p1273
F0.587200012207
sS'2000-01-01 00:25:47.351079'
p1274
F0.587200012207
sS'2000-01-01 00:25:24.557783'
p1275
F0.587999997139
sS'2000-01-01 00:25:36.058925'
p1276
F0.588799982071
sS'2000-01-01 00:26:00.798319'
p1277
F0.588799982071
sS'2000-01-01 00:25:41.484595'
p1278
F0.589600009918
sS'2000-01-01 00:25:25.836806'
p1279
F0.58639998436
sS'2000-01-01 00:25:47.990234'
p1280
F0.58639998436
sS'2000-01-01 00:25:55.989747'
p1281
F0.589600009918
sS'2000-01-01 00:26:03.458495'
p1282
F0.588799982071
sS'2000-01-01 00:25:42.972929'
p1283
F0.588799982071
sS'2000-01-01 00:26:16.992488'
p1284
F0.587999997139
sS'2000-01-01 00:25:45.745073'
p1285
F0.587999997139
sS'2000-01-01 00:26:22.632818'
p1286
F0.588799982071
sS'2000-01-01 00:25:33.181637'
p1287
F0.588799982071
sS'2000-01-01 00:25:39.676103'
p1288
F0.58639998436
sS'2000-01-01 00:25:20.615576'
p1289
F0.58639998436
sS'2000-01-01 00:25:25.942849'
p1290
F0.588799982071
sS'2000-01-01 00:26:16.562502'
p1291
F0.587200012207
sS'2000-01-01 00:25:57.904276'
p1292
F0.588799982071
sS'2000-01-01 00:25:37.658513'
p1293
F0.587200012207
sS'2000-01-01 00:25:29.343840'
p1294
F0.58639998436
sS'2000-01-01 00:26:28.068369'
p1295
F0.745600032806
sS'2000-01-01 00:25:46.820052'
p1296
F0.589600009918
sS'2000-01-01 00:26:06.115234'
p1297
F0.587999997139
sS'2000-01-01 00:25:24.984374'
p1298
F0.58639998436
sS'2000-01-01 00:26:01.860768'
p1299
F0.587999997139
sS'2000-01-01 00:25:30.628905'
p1300
F0.587999997139
sS'2000-01-01 00:25:23.068357'
p1301
F0.584800014496
sS'2000-01-01 00:25:50.327621'
p1302
F0.589600009918
sS'2000-01-01 00:26:16.886940'
p1303
F0.587200012207
sS'2000-01-01 00:25:47.671064'
p1304
F0.587999997139
sS'2000-01-01 00:26:29.874528'
p1305
F0.742400007248
sS'2000-01-01 00:25:45.852702'
p1306
F0.588799982071
sS'2000-01-01 00:26:07.716852'
p1307
F0.589600009918
sS'2000-01-01 00:25:51.937040'
p1308
F0.588799982071
sS'2000-01-01 00:26:23.697255'
p1309
F0.196800005436
sS'2000-01-01 00:26:18.478436'
p1310
F0.58639998436
sS'2000-01-01 00:25:24.132807'
p1311
F0.58639998436
sS'2000-01-01 00:26:08.355433'
p1312
F0.588799982071
sS'2000-01-01 00:26:11.447260'
p1313
F0.588799982071
sS'2000-01-01 00:26:06.327242'
p1314
F0.588799982071
sS'2000-01-01 00:26:00.904269'
p1315
F0.588799982071
sS'2000-01-01 00:26:15.070523'
p1316
F0.588799982071
sS'2000-01-01 00:25:49.263960'
p1317
F0.588799982071
sS'2000-01-01 00:26:10.700153'
p1318
F0.588799982071
sS'2000-01-01 00:26:25.187036'
p1319
F0.743999977112
sS'2000-01-01 00:25:59.716300'
p1320
F0.59039999485
sS'2000-01-01 00:26:31.683598'
p1321
F0.743200035095
sS'2000-01-01 00:25:47.883438'
p1322
F0.587999997139
sS'2000-01-01 00:26:06.539330'
p1323
F0.588799982071
sS'2000-01-01 00:25:39.570605'
p1324
F0.588799982071
sS'2000-01-01 00:26:27.431639'
p1325
F0.743200035095
sS'2000-01-01 00:25:32.330814'
p1326
F0.587999997139
sS'2000-01-01 00:25:27.008023'
p1327
F0.58639998436
sS'2000-01-01 00:26:00.370592'
p1328
F0.588799982071
sS'2000-01-01 00:25:33.076148'
p1329
F0.587999997139
sS'2000-01-01 00:26:11.553030'
p1330
F0.58639998436
sS'2000-01-01 00:25:39.039333'
p1331
F0.588799982071
sS'2000-01-01 00:25:58.435056'
p1332
F0.588799982071
sS'2000-01-01 00:25:49.902344'
p1333
F0.588799982071
sS'2000-01-01 00:26:12.189889'
p1334
F0.588799982071
sS'2000-01-01 00:26:22.847657'
p1335
F0.588799982071
sS'2000-01-01 00:25:52.684733'
p1336
F0.588799982071
sS'2000-01-01 00:25:31.692865'
p1337
F0.587999997139
sS'2000-01-01 00:26:03.989731'
p1338
F0.588799982071
sS'2000-01-01 00:25:48.519500'
p1339
F0.588799982071
sS'2000-01-01 00:26:27.111659'
p1340
F0.743200035095
sS'2000-01-01 00:26:02.179197'
p1341
F0.588799982071
sS'2000-01-01 00:25:25.198729'
p1342
F0.58639998436
sS'2000-01-01 00:26:11.021530'
p1343
F0.588799982071
sS'2000-01-01 00:25:34.455075'
p1344
F0.58639998436
sS'2000-01-01 00:25:23.813754'
p1345
F0.588799982071
sS'2000-01-01 00:26:30.834016'
p1346
F0.743999977112
sS'2000-01-01 00:25:37.977627'
p1347
F0.588799982071
sS'2000-01-01 00:26:03.351561'
p1348
F0.588799982071
sS'2000-01-01 00:25:39.358102'
p1349
F0.588799982071
sS'2000-01-01 00:25:52.467561'
p1350
F0.589600009918
sS'2000-01-01 00:25:42.655420'
p1351
F0.588799982071
sS'2000-01-01 00:25:41.060083'
p1352
F0.588799982071
sS'2000-01-01 00:26:19.968746'
p1353
F0.587999997139
sS'2000-01-01 00:25:21.359367'
p1354
F0.58639998436
sS'2000-01-01 00:25:52.148713'
p1355
F0.588799982071
ssS'Accelerometer2'
p1356
(dp1357
S'2000-01-01 00:25:55.640837'
p1358
(lp1359
F-0.0827588706181
aF-0.0689652870441
aF-1.14482780983
asS'2000-01-01 00:25:38.691721'
p1360
(lp1361
F-0.0689652870441
aF-0.0620692351769
aF-1.13793101804
asS'2000-01-01 00:26:08.537505'
p1362
(lp1363
F-0.0827588706181
aF-0.0689652870441
aF-1.13793101804
asS'2000-01-01 00:25:35.816407'
p1364
(lp1365
F-0.0896549224854
aF-0.0758620788311
aF-1.13793101804
asS'2000-01-01 00:26:29.207121'
p1366
(lp1367
F-0.0965517142723
aF-0.0827588706181
aF-1.14482780983
asS'2000-01-01 00:26:29.632815'
p1368
(lp1369
F-0.0827588706181
aF-0.0758620788311
aF-1.15172386169
asS'2000-01-01 00:25:43.049291'
p1370
(lp1371
F-0.0758620788311
aF-0.0620692351769
aF-1.1172413826
asS'2000-01-01 00:26:29.313321'
p1372
(lp1373
F-0.0896549224854
aF-0.0620692351769
aF-1.14482780983
asS'2000-01-01 00:26:24.092259'
p1374
(lp1375
F-0.110344557927
aF-0.0965517142723
aF-1.16551744527
asS'2000-01-01 00:25:36.888684'
p1376
(lp1377
F-0.0758620788311
aF-0.0620692351769
aF-1.13103422625
asS'2000-01-01 00:26:11.840923'
p1378
(lp1379
F-0.0965517142723
aF-0.0758620788311
aF-1.14482780983
asS'2000-01-01 00:26:12.700496'
p1380
(lp1381
F-0.0827588706181
aF-0.0620692351769
aF-1.13793101804
asS'2000-01-01 00:25:26.553625'
p1382
(lp1383
F-0.117241349714
aF-0.0965517142723
aF-1.16551744527
asS'2000-01-01 00:25:33.046850'
p1384
(lp1385
F-0.0896549224854
aF-0.0758620788311
aF-1.13793101804
asS'2000-01-01 00:25:58.836477'
p1386
(lp1387
F-0.0758620788311
aF-0.0689652870441
aF-1.13793101804
asS'2000-01-01 00:26:15.683670'
p1388
(lp1389
F-0.0689652870441
aF-0.0620692351769
aF-1.13793101804
asS'2000-01-01 00:25:42.838382'
p1390
(lp1391
F-0.0689652870441
aF-0.0551724433899
aF-1.13793101804
asS'2000-01-01 00:26:27.826183'
p1392
(lp1393
F-0.365516975008
aF-0.0620692351769
aF-1.08965495537
asS'2000-01-01 00:25:57.342622'
p1394
(lp1395
F-0.117241349714
aF-0.0965517142723
aF-1.16551744527
asS'2000-01-01 00:25:51.695448'
p1396
(lp1397
F-0.0689652870441
aF-0.0551724433899
aF-1.13793101804
asS'2000-01-01 00:25:35.709168'
p1398
(lp1399
F-0.0758620788311
aF-0.0620692351769
aF-1.13793101804
asS'2000-01-01 00:25:37.629399'
p1400
(lp1401
F-0.0827588706181
aF-0.0758620788311
aF-1.12413817439
asS'2000-01-01 00:25:41.774525'
p1402
(lp1403
F-0.0827588706181
aF-0.0620692351769
aF-1.13793101804
asS'2000-01-01 00:25:32.515910'
p1404
(lp1405
F-0.0689652870441
aF-0.0620692351769
aF-1.13793101804
asS'2000-01-01 00:26:12.372544'
p1406
(lp1407
F-0.0827588706181
aF-0.0620692351769
aF-1.14482780983
asS'2000-01-01 00:26:23.560987'
p1408
(lp1409
F-0.110344557927
aF-0.0827588706181
aF-1.15172386169
asS'2000-01-01 00:26:21.646675'
p1410
(lp1411
F-0.0689652870441
aF-0.0482756516029
aF-1.13793101804
asS'2000-01-01 00:25:54.568366'
p1412
(lp1413
F-0.0896549224854
aF-0.0689652870441
aF-1.15862065348
asS'2000-01-01 00:26:28.569251'
p1414
(lp1415
F-0.117241349714
aF-0.0551724433899
aF-1.12413817439
asS'2000-01-01 00:26:27.933115'
p1416
(lp1417
F-0.282758433243
aF-0.0896549224854
aF-1.17241349714
asS'2000-01-01 00:25:43.793912'
p1418
(lp1419
F-0.0827588706181
aF-0.0689652870441
aF-1.15172386169
asS'2000-01-01 00:26:16.857719'
p1420
(lp1421
F-0.0689652870441
aF-0.0620692351769
aF-1.15172386169
asS'2000-01-01 00:26:20.045097'
p1422
(lp1423
F-0.0758620788311
aF-0.0620692351769
aF-1.12413817439
asS'2000-01-01 00:25:22.287322'
p1424
(lp1425
F-0.110344557927
aF-0.0896549224854
aF-1.16551744527
asS'2000-01-01 00:25:52.655253'
p1426
(lp1427
F-0.0827588706181
aF-0.0689652870441
aF-1.13793101804
asS'2000-01-01 00:25:56.597641'
p1428
(lp1429
F-0.0758620788311
aF-0.0689652870441
aF-1.13793101804
asS'2000-01-01 00:26:22.072190'
p1430
(lp1431
F-0.0896549224854
aF-0.0689652870441
aF-1.13793101804
asS'2000-01-01 00:25:43.262561'
p1432
(lp1433
F-0.0827588706181
aF-0.0689652870441
aF-1.13793101804
asS'2000-01-01 00:26:08.112829'
p1434
(lp1435
F-0.0758620788311
aF-0.0620692351769
aF-1.13793101804
asS'2000-01-01 00:26:21.859437'
p1436
(lp1437
F-0.0827588706181
aF-0.0620692351769
aF-1.13793101804
asS'2000-01-01 00:26:23.774393'
p1438
(lp1439
F-0.0896549224854
aF-0.0758620788311
aF-1.15862065348
asS'2000-01-01 00:25:53.398650'
p1440
(lp1441
F-0.0689652870441
aF-0.0620692351769
aF-1.13103422625
asS'2000-01-01 00:26:20.681827'
p1442
(lp1443
F-0.0758620788311
aF-0.0551724433899
aF-1.13103422625
asS'2000-01-01 00:26:02.043426'
p1444
(lp1445
F-0.0896549224854
aF-0.0758620788311
aF-1.15172386169
asS'2000-01-01 00:25:29.420140'
p1446
(lp1447
F-0.103448506059
aF-0.0896549224854
aF-1.15862065348
asS'2000-01-01 00:25:47.109588'
p1448
(lp1449
F-0.0758620788311
aF-0.0620692351769
aF-1.13793101804
asS'2000-01-01 00:25:28.890849'
p1450
(lp1451
F-0.0827588706181
aF-0.0758620788311
aF-1.1172413826
asS'2000-01-01 00:25:44.651659'
p1452
(lp1453
F-0.0689652870441
aF-0.0620692351769
aF-1.13103422625
asS'2000-01-01 00:25:40.605414'
p1454
(lp1455
F-0.0896549224854
aF-0.0758620788311
aF-1.15172386169
asS'2000-01-01 00:25:46.461458'
p1456
(lp1457
F-0.0758620788311
aF-0.0620692351769
aF-1.13793101804
asS'2000-01-01 00:25:58.730721'
p1458
(lp1459
F-0.0758620788311
aF-0.0620692351769
aF-1.13103422625
asS'2000-01-01 00:25:23.039070'
p1460
(lp1461
F-0.117241349714
aF-0.0965517142723
aF-1.15862065348
asS'2000-01-01 00:26:11.097844'
p1462
(lp1463
F-0.0689652870441
aF-0.0758620788311
aF-1.13793101804
asS'2000-01-01 00:26:10.450717'
p1464
(lp1465
F-0.0827588706181
aF-0.0620692351769
aF-1.13793101804
asS'2000-01-01 00:25:26.661353'
p1466
(lp1467
F-0.0896549224854
aF-0.0758620788311
aF-1.15172386169
asS'2000-01-01 00:25:50.404293'
p1468
(lp1469
F-0.0758620788311
aF-0.0551724433899
aF-1.13103422625
asS'2000-01-01 00:25:39.222856'
p1470
(lp1471
F-0.0689652870441
aF-0.0620692351769
aF-1.13793101804
asS'2000-01-01 00:26:06.617188'
p1472
(lp1473
F-0.0896549224854
aF-0.0689652870441
aF-1.13793101804
asS'2000-01-01 00:26:00.661255'
p1474
(lp1475
F-0.0896549224854
aF-0.0827588706181
aF-1.14482780983
asS'2000-01-01 00:26:22.603517'
p1476
(lp1477
F-0.0758620788311
aF-0.0689652870441
aF-1.13793101804
asS'2000-01-01 00:26:31.654295'
p1478
(lp1479
F-0.137930985155
aF-0.117241349714
aF-1.15862065348
asS'2000-01-01 00:25:36.782548'
p1480
(lp1481
F-0.0896549224854
aF-0.0758620788311
aF-1.12413817439
asS'2000-01-01 00:26:05.660226'
p1482
(lp1483
F-0.0758620788311
aF-0.0620692351769
aF-1.14482780983
asS'2000-01-01 00:25:24.848568'
p1484
(lp1485
F-0.0896549224854
aF-0.0827588706181
aF-1.15862065348
asS'2000-01-01 00:26:05.766478'
p1486
(lp1487
F-0.0896549224854
aF-0.0758620788311
aF-1.15862065348
asS'2000-01-01 00:26:00.127665'
p1488
(lp1489
F-0.0827588706181
aF-0.0551724433899
aF-1.12413817439
asS'2000-01-01 00:26:07.475055'
p1490
(lp1491
F-0.0965517142723
aF-0.0827588706181
aF-1.14482780983
asS'2000-01-01 00:25:56.918240'
p1492
(lp1493
F-0.0896549224854
aF-0.0689652870441
aF-1.14482780983
asS'2000-01-01 00:26:29.419440'
p1494
(lp1495
F-0.117241349714
aF-0.0965517142723
aF-1.17241349714
asS'2000-01-01 00:25:54.895384'
p1496
(lp1497
F-0.0896549224854
aF-0.0689652870441
aF-1.13793101804
asS'2000-01-01 00:25:42.518083'
p1498
(lp1499
F-0.0758620788311
aF-0.0551724433899
aF-1.12413817439
asS'2000-01-01 00:25:31.770307'
p1500
(lp1501
F-0.0827588706181
aF-0.0689652870441
aF-1.13793101804
asS'2000-01-01 00:26:18.129324'
p1502
(lp1503
F-0.0896549224854
aF-0.0689652870441
aF-1.13793101804
asS'2000-01-01 00:26:17.597857'
p1504
(lp1505
F-0.0827588706181
aF-0.0620692351769
aF-1.13793101804
asS'2000-01-01 00:25:57.236768'
p1506
(lp1507
F-0.0896549224854
aF-0.0827588706181
aF-1.14482780983
asS'2000-01-01 00:26:16.751825'
p1508
(lp1509
F-0.0896549224854
aF-0.0758620788311
aF-1.13793101804
asS'2000-01-01 00:25:35.390107'
p1510
(lp1511
F-0.0896549224854
aF-0.0689652870441
aF-1.14482780983
asS'2000-01-01 00:26:10.556745'
p1512
(lp1513
F-0.0896549224854
aF-0.0689652870441
aF-1.15172386169
asS'2000-01-01 00:26:26.437861'
p1514
(lp1515
F-0.386206610449
aF-0.0827588706181
aF-1.09655174716
asS'2000-01-01 00:25:39.010230'
p1516
(lp1517
F-0.0689652870441
aF-0.0482756516029
aF-1.12413817439
asS'2000-01-01 00:25:24.103534'
p1518
(lp1519
F-0.0896549224854
aF-0.0689652870441
aF-1.15172386169
asS'2000-01-01 00:25:37.734841'
p1520
(lp1521
F-0.0827588706181
aF-0.0689652870441
aF-1.15172386169
asS'2000-01-01 00:26:17.492410'
p1522
(lp1523
F-0.0758620788311
aF-0.0620692351769
aF-1.13793101804
asS'2000-01-01 00:25:48.703362'
p1524
(lp1525
F-0.0758620788311
aF-0.0551724433899
aF-1.13793101804
asS'2000-01-01 00:25:56.491612'
p1526
(lp1527
F-0.0758620788311
aF-0.0620692351769
aF-1.13793101804
asS'2000-01-01 00:25:51.588337'
p1528
(lp1529
F-0.0827588706181
aF-0.0620692351769
aF-1.13793101804
asS'2000-01-01 00:25:23.466114'
p1530
(lp1531
F-0.103448506059
aF-0.0896549224854
aF-1.16551744527
asS'2000-01-01 00:25:41.986518'
p1532
(lp1533
F-0.0758620788311
aF-0.0620692351769
aF-1.15862065348
asS'2000-01-01 00:26:20.470041'
p1534
(lp1535
F-0.0965517142723
aF-0.0758620788311
aF-1.14482780983
asS'2000-01-01 00:26:04.810760'
p1536
(lp1537
F-0.0896549224854
aF-0.0689652870441
aF-1.15172386169
asS'2000-01-01 00:26:16.639485'
p1538
(lp1539
F-0.0827588706181
aF-0.0620692351769
aF-1.13793101804
asS'2000-01-01 00:25:57.662118'
p1540
(lp1541
F-0.0758620788311
aF-0.0551724433899
aF-1.13793101804
asS'2000-01-01 00:25:37.418151'
p1542
(lp1543
F-0.0965517142723
aF-0.0827588706181
aF-1.15172386169
asS'2000-01-01 00:25:47.321744'
p1544
(lp1545
F-0.0965517142723
aF-0.0827588706181
aF-1.15172386169
asS'2000-01-01 00:26:05.234615'
p1546
(lp1547
F-0.0965517142723
aF-0.0827588706181
aF-1.15172386169
asS'2000-01-01 00:26:06.191784'
p1548
(lp1549
F-0.0965517142723
aF-0.0896549224854
aF-1.15172386169
asS'2000-01-01 00:25:33.788197'
p1550
(lp1551
F-0.0965517142723
aF-0.0896549224854
aF-1.14482780983
asS'2000-01-01 00:26:30.697478'
p1552
(lp1553
F-0.0896549224854
aF-0.0896549224854
aF-1.15862065348
asS'2000-01-01 00:25:31.450850'
p1554
(lp1555
F-0.0689652870441
aF-0.0551724433899
aF-1.13793101804
asS'2000-01-01 00:26:26.763202'
p1556
(lp1557
F-0.668965454759
aF-0.0827588706181
aF-0.951724299069
asS'2000-01-01 00:25:20.586409'
p1558
(lp1559
F-0.110344557927
aF-0.0965517142723
aF-1.16551744527
asS'2000-01-01 00:25:40.498053'
p1560
(lp1561
F-0.0689652870441
aF-0.0551724433899
aF-1.13793101804
asS'2000-01-01 00:25:25.701381'
p1562
(lp1563
F-0.103448506059
aF-0.0896549224854
aF-1.15862065348
asS'2000-01-01 00:25:53.080574'
p1564
(lp1565
F-0.0689652870441
aF-0.0620692351769
aF-1.13793101804
asS'2000-01-01 00:25:34.644533'
p1566
(lp1567
F-0.0827588706181
aF-0.0689652870441
aF-1.13793101804
asS'2000-01-01 00:25:55.535182'
p1568
(lp1569
F-0.0758620788311
aF-0.0620692351769
aF-1.13793101804
asS'2000-01-01 00:25:45.503337'
p1570
(lp1571
F-0.0896549224854
aF-0.0758620788311
aF-1.14482780983
asS'2000-01-01 00:26:09.494357'
p1572
(lp1573
F-0.0827588706181
aF-0.0758620788311
aF-1.14482780983
asS'2000-01-01 00:26:11.310857'
p1574
(lp1575
F-0.0896549224854
aF-0.0758620788311
aF-1.13793101804
asS'2000-01-01 00:26:14.613284'
p1576
(lp1577
F-0.0827588706181
aF-0.0689652870441
aF-1.13793101804
asS'2000-01-01 00:25:48.066869'
p1578
(lp1579
F-0.0896549224854
aF-0.0689652870441
aF-1.14482780983
asS'2000-01-01 00:25:33.681842'
p1580
(lp1581
F-0.0758620788311
aF-0.0620692351769
aF-1.13793101804
asS'2000-01-01 00:26:27.294890'
p1582
(lp1583
F-0.862068965517
aF-0.117241349714
aF-0.806896850981
asS'2000-01-01 00:25:25.913537'
p1584
(lp1585
F-0.0896549224854
aF-0.0758620788311
aF-1.13793101804
asS'2000-01-01 00:25:39.753222'
p1586
(lp1587
F-0.0689652870441
aF-0.0551724433899
aF-1.13103422625
asS'2000-01-01 00:25:35.283730'
p1588
(lp1589
F-0.0827588706181
aF-0.0689652870441
aF-1.14482780983
asS'2000-01-01 00:25:44.759119'
p1590
(lp1591
F-0.0758620788311
aF-0.0482756516029
aF-1.13793101804
asS'2000-01-01 00:26:23.986680'
p1592
(lp1593
F-0.0965517142723
aF-0.0827588706181
aF-1.14482780983
asS'2000-01-01 00:25:59.687022'
p1594
(lp1595
F-0.0965517142723
aF-0.0896549224854
aF-1.1172413826
asS'2000-01-01 00:25:32.623135'
p1596
(lp1597
F-0.0827588706181
aF-0.0620692351769
aF-1.14482780983
asS'2000-01-01 00:25:30.058652'
p1598
(lp1599
F-0.0827588706181
aF-0.0620692351769
aF-1.15172386169
asS'2000-01-01 00:25:36.568876'
p1600
(lp1601
F-0.0965517142723
aF-0.0827588706181
aF-1.15862065348
asS'2000-01-01 00:25:26.126892'
p1602
(lp1603
F-0.0827588706181
aF-0.0689652870441
aF-1.15862065348
asS'2000-01-01 00:25:53.715685'
p1604
(lp1605
F-0.0758620788311
aF-0.0620692351769
aF-1.12413817439
asS'2000-01-01 00:26:19.513150'
p1606
(lp1607
F-0.0758620788311
aF-0.0551724433899
aF-1.13793101804
asS'2000-01-01 00:25:27.830078'
p1608
(lp1609
F-0.0965517142723
aF-0.0827588706181
aF-1.16551744527
asS'2000-01-01 00:25:47.641633'
p1610
(lp1611
F-0.0896549224854
aF-0.0758620788311
aF-1.13793101804
asS'2000-01-01 00:25:59.580326'
p1612
(lp1613
F-0.0620692351769
aF-0.0413795997357
aF-1.13103422625
asS'2000-01-01 00:26:15.576473'
p1614
(lp1615
F-0.0827588706181
aF-0.0620692351769
aF-1.13793101804
asS'2000-01-01 00:26:18.343006'
p1616
(lp1617
F-0.0689652870441
aF-0.0482756516029
aF-1.13793101804
asS'2000-01-01 00:25:52.763025'
p1618
(lp1619
F-0.0758620788311
aF-0.0551724433899
aF-1.14482780983
asS'2000-01-01 00:25:25.595704'
p1620
(lp1621
F-0.0965517142723
aF-0.0896549224854
aF-1.14482780983
asS'2000-01-01 00:25:37.205561'
p1622
(lp1623
F-0.0758620788311
aF-0.0620692351769
aF-1.13793101804
asS'2000-01-01 00:26:12.913025'
p1624
(lp1625
F-0.0827588706181
aF-0.0689652870441
aF-1.13793101804
asS'2000-01-01 00:26:05.447291'
p1626
(lp1627
F-0.0827588706181
aF-0.0758620788311
aF-1.15172386169
asS'2000-01-01 00:25:53.186015'
p1628
(lp1629
F-0.0689652870441
aF-0.0551724433899
aF-1.13793101804
asS'2000-01-01 00:25:42.306654'
p1630
(lp1631
F-0.0620692351769
aF-0.0551724433899
aF-1.13793101804
asS'2000-01-01 00:26:06.510084'
p1632
(lp1633
F-0.0758620788311
aF-0.0689652870441
aF-1.13103422625
asS'2000-01-01 00:25:54.035357'
p1634
(lp1635
F-0.0758620788311
aF-0.0620692351769
aF-1.13793101804
asS'2000-01-01 00:26:25.693365'
p1636
(lp1637
F-0.0482756516029
aF-0.0482756516029
aF-1.13793101804
asS'2000-01-01 00:26:31.760167'
p1638
(lp1639
F-0.0965517142723
aF-0.0896549224854
aF-1.15172386169
asS'2000-01-01 00:26:12.807169'
p1640
(lp1641
F-0.0689652870441
aF-0.0551724433899
aF-1.13793101804
asS'2000-01-01 00:25:46.248068'
p1642
(lp1643
F-0.0827588706181
aF-0.0620692351769
aF-1.13793101804
asS'2000-01-01 00:25:29.527682'
p1644
(lp1645
F-0.117241349714
aF-0.103448506059
aF-1.17241349714
asS'2000-01-01 00:26:07.049636'
p1646
(lp1647
F-0.0896549224854
aF-0.0758620788311
aF-1.13793101804
asS'2000-01-01 00:25:46.355148'
p1648
(lp1649
F-0.0689652870441
aF-0.0551724433899
aF-1.14482780983
asS'2000-01-01 00:25:36.135256'
p1650
(lp1651
F-0.0896549224854
aF-0.0689652870441
aF-1.13793101804
asS'2000-01-01 00:25:28.041463'
p1652
(lp1653
F-0.103448506059
aF-0.0896549224854
aF-1.16551744527
asS'2000-01-01 00:26:28.888621'
p1654
(lp1655
F-0.0827588706181
aF-0.0689652870441
aF-1.15172386169
asS'2000-01-01 00:26:31.016096'
p1656
(lp1657
F-0.0965517142723
aF-0.0896549224854
aF-1.15862065348
asS'2000-01-01 00:25:41.880830'
p1658
(lp1659
F-0.0896549224854
aF-0.0758620788311
aF-1.15862065348
asS'2000-01-01 00:26:24.304913'
p1660
(lp1661
F-0.0827588706181
aF-0.0620692351769
aF-1.13793101804
asS'2000-01-01 00:26:13.762510'
p1662
(lp1663
F-0.0896549224854
aF-0.0827588706181
aF-1.15862065348
asS'2000-01-01 00:25:25.382283'
p1664
(lp1665
F-0.103448506059
aF-0.0965517142723
aF-1.16551744527
asS'2000-01-01 00:26:08.857426'
p1666
(lp1667
F-0.0758620788311
aF-0.0551724433899
aF-1.13103422625
asS'2000-01-01 00:26:18.235255'
p1668
(lp1669
F-0.0896549224854
aF-0.0758620788311
aF-1.15172386169
asS'2000-01-01 00:25:44.430967'
p1670
(lp1671
F-0.0758620788311
aF-0.0620692351769
aF-1.14482780983
asS'2000-01-01 00:26:04.597608'
p1672
(lp1673
F-0.0827588706181
aF-0.0620692351769
aF-1.13103422625
asS'2000-01-01 00:25:34.536523'
p1674
(lp1675
F-0.0896549224854
aF-0.0758620788311
aF-1.14482780983
asS'2000-01-01 00:26:07.687767'
p1676
(lp1677
F-0.0689652870441
aF-0.0620692351769
aF-1.15172386169
asS'2000-01-01 00:25:55.320891'
p1678
(lp1679
F-0.0689652870441
aF-0.0620692351769
aF-1.12413817439
asS'2000-01-01 00:25:55.001432'
p1680
(lp1681
F-0.0758620788311
aF-0.0620692351769
aF-1.13793101804
asS'2000-01-01 00:25:49.446260'
p1682
(lp1683
F-0.0689652870441
aF-0.0551724433899
aF-1.13103422625
asS'2000-01-01 00:25:32.407376'
p1684
(lp1685
F-0.0758620788311
aF-0.0620692351769
aF-1.13793101804
asS'2000-01-01 00:26:13.868627'
p1686
(lp1687
F-0.0896549224854
aF-0.0758620788311
aF-1.15172386169
asS'2000-01-01 00:25:26.340093'
p1688
(lp1689
F-0.110344557927
aF-0.0965517142723
aF-1.15862065348
asS'2000-01-01 00:26:17.811619'
p1690
(lp1691
F-0.0758620788311
aF-0.0620692351769
aF-1.13103422625
asS'2000-01-01 00:25:28.677983'
p1692
(lp1693
F-0.0758620788311
aF-0.0689652870441
aF-1.13793101804
asS'2000-01-01 00:25:45.076600'
p1694
(lp1695
F-0.0689652870441
aF-0.0551724433899
aF-1.12413817439
asS'2000-01-01 00:26:16.963339'
p1696
(lp1697
F-0.0827588706181
aF-0.0620692351769
aF-1.14482780983
asS'2000-01-01 00:25:39.859563'
p1698
(lp1699
F-0.0827588706181
aF-0.0689652870441
aF-1.13793101804
asS'2000-01-01 00:26:03.216051'
p1700
(lp1701
F-0.0896549224854
aF-0.0758620788311
aF-1.15172386169
asS'2000-01-01 00:26:00.341328'
p1702
(lp1703
F-0.0827588706181
aF-0.0620692351769
aF-1.13793101804
asS'2000-01-01 00:25:50.843193'
p1704
(lp1705
F-0.103448506059
aF-0.0896549224854
aF-1.15862065348
asS'2000-01-01 00:26:00.768921'
p1706
(lp1707
F-0.0758620788311
aF-0.0620692351769
aF-1.12413817439
asS'2000-01-01 00:25:41.348942'
p1708
(lp1709
F-0.0896549224854
aF-0.0758620788311
aF-1.15862065348
asS'2000-01-01 00:25:48.277844'
p1710
(lp1711
F-0.0896549224854
aF-0.0758620788311
aF-1.14482780983
asS'2000-01-01 00:25:44.111583'
p1712
(lp1713
F-0.0827588706181
aF-0.0689652870441
aF-1.15172386169
asS'2000-01-01 00:26:11.204957'
p1714
(lp1715
F-0.0827588706181
aF-0.0689652870441
aF-1.15172386169
asS'2000-01-01 00:25:45.929641'
p1716
(lp1717
F-0.0758620788311
aF-0.0620692351769
aF-1.14482780983
asS'2000-01-01 00:25:32.834476'
p1718
(lp1719
F-0.0827588706181
aF-0.0689652870441
aF-1.15172386169
asS'2000-01-01 00:25:47.429062'
p1720
(lp1721
F-0.0758620788311
aF-0.0620692351769
aF-1.13793101804
asS'2000-01-01 00:25:34.856164'
p1722
(lp1723
F-0.0896549224854
aF-0.0896549224854
aF-1.15172386169
asS'2000-01-01 00:25:46.141047'
p1724
(lp1725
F-0.0896549224854
aF-0.0758620788311
aF-1.14482780983
asS'2000-01-01 00:25:41.562569'
p1726
(lp1727
F-0.0758620788311
aF-0.0551724433899
aF-1.14482780983
asS'2000-01-01 00:26:02.148867'
p1728
(lp1729
F-0.0896549224854
aF-0.0827588706181
aF-1.15172386169
asS'2000-01-01 00:26:03.109796'
p1730
(lp1731
F-0.0827588706181
aF-0.0620692351769
aF-1.14482780983
asS'2000-01-01 00:25:42.732319'
p1732
(lp1733
F-0.0689652870441
aF-0.0551724433899
aF-1.1172413826
asS'2000-01-01 00:26:25.157715'
p1734
(lp1735
F-0.103448506059
aF-0.0896549224854
aF-1.15862065348
asS'2000-01-01 00:25:38.904639'
p1736
(lp1737
F-0.0896549224854
aF-0.0758620788311
aF-1.13793101804
asS'2000-01-01 00:25:20.373273'
p1738
(lp1739
F-0.110344557927
aF-0.0965517142723
aF-1.15862065348
asS'2000-01-01 00:25:44.324713'
p1740
(lp1741
F-0.0758620788311
aF-0.0620692351769
aF-1.13793101804
asS'2000-01-01 00:25:38.266143'
p1742
(lp1743
F-0.0689652870441
aF-0.0482756516029
aF-1.13793101804
asS'2000-01-01 00:26:06.837804'
p1744
(lp1745
F-0.0896549224854
aF-0.0689652870441
aF-1.13793101804
asS'2000-01-01 00:26:26.117922'
p1746
(lp1747
F-0.0758620788311
aF-0.0620692351769
aF-1.17931028892
asS'2000-01-01 00:25:49.022287'
p1748
(lp1749
F-0.0827588706181
aF-0.0689652870441
aF-1.13103422625
asS'2000-01-01 00:25:39.541500'
p1750
(lp1751
F-0.0758620788311
aF-0.0620692351769
aF-1.13793101804
asS'2000-01-01 00:26:31.547163'
p1752
(lp1753
F-0.0965517142723
aF-0.0965517142723
aF-1.14482780983
asS'2000-01-01 00:25:37.948164'
p1754
(lp1755
F-0.0689652870441
aF-0.0551724433899
aF-1.14482780983
asS'2000-01-01 00:25:32.195680'
p1756
(lp1757
F-0.0896549224854
aF-0.0689652870441
aF-1.15172386169
asS'2000-01-01 00:25:52.544129'
p1758
(lp1759
F-0.0689652870441
aF-0.0551724433899
aF-1.15172386169
asS'2000-01-01 00:25:22.394535'
p1760
(lp1761
F-0.110344557927
aF-0.0965517142723
aF-1.16551744527
asS'2000-01-01 00:25:45.182316'
p1762
(lp1763
F-0.0896549224854
aF-0.0689652870441
aF-1.14482780983
asS'2000-01-01 00:25:21.117407'
p1764
(lp1765
F-0.103448506059
aF-0.0965517142723
aF-1.16551744527
asS'2000-01-01 00:26:27.082530'
p1766
(lp1767
F-0.800000059194
aF-0.110344557927
aF-0.848276121863
asS'2000-01-01 00:25:51.482728'
p1768
(lp1769
F-0.0965517142723
aF-0.0758620788311
aF-1.15862065348
asS'2000-01-01 00:26:12.160585'
p1770
(lp1771
F-0.0896549224854
aF-0.0827588706181
aF-1.15862065348
asS'2000-01-01 00:25:56.383992'
p1772
(lp1773
F-0.0827588706181
aF-0.0758620788311
aF-1.13793101804
asS'2000-01-01 00:25:56.066424'
p1774
(lp1775
F-0.0827588706181
aF-0.0689652870441
aF-1.13793101804
asS'2000-01-01 00:25:22.074728'
p1776
(lp1777
F-0.0896549224854
aF-0.0758620788311
aF-1.15862065348
asS'2000-01-01 00:25:53.293073'
p1778
(lp1779
F-0.0896549224854
aF-0.0827588706181
aF-1.14482780983
asS'2000-01-01 00:25:28.146904'
p1780
(lp1781
F-0.0896549224854
aF-0.0758620788311
aF-1.15172386169
asS'2000-01-01 00:25:24.314729'
p1782
(lp1783
F-0.0827588706181
aF-0.0689652870441
aF-1.13793101804
asS'2000-01-01 00:25:24.420174'
p1784
(lp1785
F-0.110344557927
aF-0.0965517142723
aF-1.16551744527
asS'2000-01-01 00:26:23.455578'
p1786
(lp1787
F-0.0827588706181
aF-0.0689652870441
aF-1.14482780983
asS'2000-01-01 00:25:21.330058'
p1788
(lp1789
F-0.0896549224854
aF-0.0758620788311
aF-1.16551744527
asS'2000-01-01 00:25:52.332541'
p1790
(lp1791
F-0.0689652870441
aF-0.0620692351769
aF-1.12413817439
asS'2000-01-01 00:26:27.402344'
p1792
(lp1793
F-0.841379330076
aF-0.0896549224854
aF-0.786207215539
asS'2000-01-01 00:25:31.556643'
p1794
(lp1795
F-0.0896549224854
aF-0.0689652870441
aF-1.15862065348
asS'2000-01-01 00:25:48.596576'
p1796
(lp1797
F-0.0689652870441
aF-0.0551724433899
aF-1.13103422625
asS'2000-01-01 00:25:31.025404'
p1798
(lp1799
F-0.0896549224854
aF-0.0758620788311
aF-1.14482780983
asS'2000-01-01 00:26:27.719230'
p1800
(lp1801
F-0.50344837123
aF-0.0620692351769
aF-1.06896531993
asS'2000-01-01 00:25:46.790561'
p1802
(lp1803
F-0.0689652870441
aF-0.0620692351769
aF-1.13103422625
asS'2000-01-01 00:25:41.242710'
p1804
(lp1805
F-0.0827588706181
aF-0.0689652870441
aF-1.14482780983
asS'2000-01-01 00:25:36.994382'
p1806
(lp1807
F-0.0965517142723
aF-0.0758620788311
aF-1.15172386169
asS'2000-01-01 00:26:24.516056'
p1808
(lp1809
F-0.0896549224854
aF-0.0689652870441
aF-1.15172386169
asS'2000-01-01 00:26:27.188394'
p1810
(lp1811
F-0.841379330076
aF-0.0965517142723
aF-0.834482538289
asS'2000-01-01 00:25:43.368634'
p1812
(lp1813
F-0.0758620788311
aF-0.0689652870441
aF-1.13103422625
asS'2000-01-01 00:25:42.093306'
p1814
(lp1815
F-0.0896549224854
aF-0.0758620788311
aF-1.13103422625
asS'2000-01-01 00:26:13.974676'
p1816
(lp1817
F-0.0689652870441
aF-0.0620692351769
aF-1.13793101804
asS'2000-01-01 00:25:20.691920'
p1818
(lp1819
F-0.110344557927
aF-0.0896549224854
aF-1.16551744527
asS'2000-01-01 00:26:28.039077'
p1820
(lp1821
F-0.124138141501
aF-0.0758620788311
aF-1.14482780983
asS'2000-01-01 00:26:09.068868'
p1822
(lp1823
F-0.0896549224854
aF-0.0827588706181
aF-1.14482780983
asS'2000-01-01 00:25:46.897857'
p1824
(lp1825
F-0.0689652870441
aF-0.0689652870441
aF-1.13793101804
asS'2000-01-01 00:25:25.807424'
p1826
(lp1827
F-0.103448506059
aF-0.0896549224854
aF-1.15862065348
asS'2000-01-01 00:26:06.085934'
p1828
(lp1829
F-0.0758620788311
aF-0.0620692351769
aF-1.15862065348
asS'2000-01-01 00:26:10.344638'
p1830
(lp1831
F-0.0689652870441
aF-0.0551724433899
aF-1.14482780983
asS'2000-01-01 00:25:52.438255'
p1832
(lp1833
F-0.0758620788311
aF-0.0620692351769
aF-1.13793101804
asS'2000-01-01 00:26:08.326100'
p1834
(lp1835
F-0.0689652870441
aF-0.0620692351769
aF-1.13103422625
asS'2000-01-01 00:25:23.144998'
p1836
(lp1837
F-0.0965517142723
aF-0.0896549224854
aF-1.16551744527
asS'2000-01-01 00:25:27.509894'
p1838
(lp1839
F-0.110344557927
aF-0.0896549224854
aF-1.16551744527
asS'2000-01-01 00:25:35.068287'
p1840
(lp1841
F-0.0827588706181
aF-0.0620692351769
aF-1.13103422625
asS'2000-01-01 00:25:48.809118'
p1842
(lp1843
F-0.0827588706181
aF-0.0689652870441
aF-1.15862065348
asS'2000-01-01 00:26:26.224625'
p1844
(lp1845
F-0.158620620596
aF-0.0965517142723
aF-1.15172386169
asS'2000-01-01 00:26:05.978984'
p1846
(lp1847
F-0.0827588706181
aF-0.0689652870441
aF-1.14482780983
asS'2000-01-01 00:26:13.126407'
p1848
(lp1849
F-0.0896549224854
aF-0.0758620788311
aF-1.14482780983
asS'2000-01-01 00:25:39.966720'
p1850
(lp1851
F-0.0758620788311
aF-0.0551724433899
aF-1.13793101804
asS'2000-01-01 00:25:28.359475'
p1852
(lp1853
F-0.0827588706181
aF-0.0758620788311
aF-1.13793101804
asS'2000-01-01 00:25:54.682064'
p1854
(lp1855
F-0.0827588706181
aF-0.0689652870441
aF-1.13103422625
asS'2000-01-01 00:26:17.917816'
p1856
(lp1857
F-0.0896549224854
aF-0.0689652870441
aF-1.14482780983
asS'2000-01-01 00:25:25.062043'
p1858
(lp1859
F-0.110344557927
aF-0.0896549224854
aF-1.14482780983
asS'2000-01-01 00:25:50.950356'
p1860
(lp1861
F-0.0965517142723
aF-0.0758620788311
aF-1.13793101804
asS'2000-01-01 00:25:59.793865'
p1862
(lp1863
F-0.0689652870441
aF-0.0551724433899
aF-1.13103422625
asS'2000-01-01 00:26:18.660635'
p1864
(lp1865
F-0.0965517142723
aF-0.0827588706181
aF-1.15172386169
asS'2000-01-01 00:25:37.523680'
p1866
(lp1867
F-0.0965517142723
aF-0.0689652870441
aF-1.15172386169
asS'2000-01-01 00:25:21.754835'
p1868
(lp1869
F-0.110344557927
aF-0.103448506059
aF-1.16551744527
asS'2000-01-01 00:25:36.453810'
p1870
(lp1871
F-0.0896549224854
aF-0.0758620788311
aF-1.14482780983
asS'2000-01-01 00:25:30.599623'
p1872
(lp1873
F-0.0965517142723
aF-0.0827588706181
aF-1.15172386169
asS'2000-01-01 00:25:51.801724'
p1874
(lp1875
F-0.0758620788311
aF-0.0689652870441
aF-1.13103422625
asS'2000-01-01 00:26:20.576212'
p1876
(lp1877
F-0.0689652870441
aF-0.0551724433899
aF-1.13793101804
asS'2000-01-01 00:26:20.362111'
p1878
(lp1879
F-0.0758620788311
aF-0.0689652870441
aF-1.13103422625
asS'2000-01-01 00:26:10.886496'
p1880
(lp1881
F-0.0689652870441
aF-0.0620692351769
aF-1.1172413826
asS'2000-01-01 00:25:24.740445'
p1882
(lp1883
F-0.0896549224854
aF-0.0758620788311
aF-1.13103422625
asS'2000-01-01 00:25:52.975069'
p1884
(lp1885
F-0.0827588706181
aF-0.0689652870441
aF-1.13793101804
asS'2000-01-01 00:26:20.256381'
p1886
(lp1887
F-0.0689652870441
aF-0.0620692351769
aF-1.13103422625
asS'2000-01-01 00:25:40.923846'
p1888
(lp1889
F-0.0827588706181
aF-0.0620692351769
aF-1.15862065348
asS'2000-01-01 00:25:34.750363'
p1890
(lp1891
F-0.0827588706181
aF-0.0620692351769
aF-1.13793101804
asS'2000-01-01 00:26:15.470704'
p1892
(lp1893
F-0.0896549224854
aF-0.0827588706181
aF-1.15862065348
asS'2000-01-01 00:26:22.285166'
p1894
(lp1895
F-0.0758620788311
aF-0.0620692351769
aF-1.13793101804
asS'2000-01-01 00:26:04.172163'
p1896
(lp1897
F-0.0758620788311
aF-0.0551724433899
aF-1.13793101804
asS'2000-01-01 00:25:59.474598'
p1898
(lp1899
F-0.110344557927
aF-0.0896549224854
aF-1.15172386169
asS'2000-01-01 00:25:31.663598'
p1900
(lp1901
F-0.117241349714
aF-0.0965517142723
aF-1.15862065348
asS'2000-01-01 00:26:23.880741'
p1902
(lp1903
F-0.0896549224854
aF-0.0758620788311
aF-1.15172386169
asS'2000-01-01 00:25:53.609893'
p1904
(lp1905
F-0.0689652870441
aF-0.0620692351769
aF-1.13793101804
asS'2000-01-01 00:26:30.910515'
p1906
(lp1907
F-0.110344557927
aF-0.0896549224854
aF-1.17241349714
asS'2000-01-01 00:26:18.023726'
p1908
(lp1909
F-0.0896549224854
aF-0.0620692351769
aF-1.14482780983
asS'2000-01-01 00:25:55.214786'
p1910
(lp1911
F-0.0758620788311
aF-0.0620692351769
aF-1.13793101804
asS'2000-01-01 00:26:02.256105'
p1912
(lp1913
F-0.0758620788311
aF-0.0620692351769
aF-1.13793101804
asS'2000-01-01 00:25:44.219030'
p1914
(lp1915
F-0.0689652870441
aF-0.0620692351769
aF-1.14482780983
asS'2000-01-01 00:25:55.747257'
p1916
(lp1917
F-0.0620692351769
aF-0.0620692351769
aF-1.13793101804
asS'2000-01-01 00:25:27.191674'
p1918
(lp1919
F-0.0827588706181
aF-0.0689652870441
aF-1.16551744527
asS'2000-01-01 00:25:21.541953'
p1920
(lp1921
F-0.103448506059
aF-0.0896549224854
aF-1.15862065348
asS'2000-01-01 00:25:44.970924'
p1922
(lp1923
F-0.0827588706181
aF-0.0620692351769
aF-1.15172386169
asS'2000-01-01 00:25:20.479818'
p1924
(lp1925
F-0.0827588706181
aF-0.0758620788311
aF-1.14482780983
asS'2000-01-01 00:25:58.299689'
p1926
(lp1927
F-0.0758620788311
aF-0.0689652870441
aF-1.13103422625
asS'2000-01-01 00:25:49.553635'
p1928
(lp1929
F-0.0896549224854
aF-0.0758620788311
aF-1.13103422625
asS'2000-01-01 00:25:59.368656'
p1930
(lp1931
F-0.0758620788311
aF-0.0620692351769
aF-1.14482780983
asS'2000-01-01 00:25:30.164305'
p1932
(lp1933
F-0.0965517142723
aF-0.0896549224854
aF-1.15172386169
asS'2000-01-01 00:26:00.553304'
p1934
(lp1935
F-0.0965517142723
aF-0.0827588706181
aF-1.15172386169
asS'2000-01-01 00:26:01.937469'
p1936
(lp1937
F-0.0827588706181
aF-0.0620692351769
aF-1.14482780983
asS'2000-01-01 00:25:33.152432'
p1938
(lp1939
F-0.0758620788311
aF-0.0482756516029
aF-1.12413817439
asS'2000-01-01 00:26:09.705596'
p1940
(lp1941
F-0.0827588706181
aF-0.0689652870441
aF-1.12413817439
asS'2000-01-01 00:25:46.684315'
p1942
(lp1943
F-0.0620692351769
aF-0.0551724433899
aF-1.13793101804
asS'2000-01-01 00:25:42.412357'
p1944
(lp1945
F-0.0827588706181
aF-0.0620692351769
aF-1.13793101804
asS'2000-01-01 00:26:30.164070'
p1946
(lp1947
F-0.103448506059
aF-0.0896549224854
aF-1.15862065348
asS'2000-01-01 00:26:00.447328'
p1948
(lp1949
F-0.0827588706181
aF-0.0551724433899
aF-1.13793101804
asS'2000-01-01 00:26:13.232383'
p1950
(lp1951
F-0.0896549224854
aF-0.0758620788311
aF-1.14482780983
asS'2000-01-01 00:26:26.648900'
p1952
(lp1953
F-0.599999756649
aF-0.103448506059
aF-1.02068999718
asS'2000-01-01 00:26:15.148420'
p1954
(lp1955
F-0.0758620788311
aF-0.0689652870441
aF-1.14482780983
asS'2000-01-01 00:25:43.156257'
p1956
(lp1957
F-0.0758620788311
aF-0.0551724433899
aF-1.13793101804
asS'2000-01-01 00:25:54.356356'
p1958
(lp1959
F-0.0758620788311
aF-0.0551724433899
aF-1.13103422625
asS'2000-01-01 00:26:25.371799'
p1960
(lp1961
F-0.0896549224854
aF-0.0896549224854
aF-1.16551744527
asS'2000-01-01 00:26:03.640805'
p1962
(lp1963
F-0.0758620788311
aF-0.0620692351769
aF-1.13793101804
asS'2000-01-01 00:25:27.722650'
p1964
(lp1965
F-0.103448506059
aF-0.0896549224854
aF-1.15862065348
asS'2000-01-01 00:26:03.535168'
p1966
(lp1967
F-0.0758620788311
aF-0.0551724433899
aF-1.13103422625
asS'2000-01-01 00:26:06.943850'
p1968
(lp1969
F-0.0965517142723
aF-0.0827588706181
aF-1.15862065348
asS'2000-01-01 00:26:22.390843'
p1970
(lp1971
F-0.0827588706181
aF-0.0620692351769
aF-1.13793101804
asS'2000-01-01 00:25:47.535148'
p1972
(lp1973
F-0.0827588706181
aF-0.0689652870441
aF-1.13793101804
asS'2000-01-01 00:25:38.373376'
p1974
(lp1975
F-0.0758620788311
aF-0.0620692351769
aF-1.13793101804
asS'2000-01-01 00:26:14.830051'
p1976
(lp1977
F-0.0896549224854
aF-0.0758620788311
aF-1.14482780983
asS'2000-01-01 00:26:14.400269'
p1978
(lp1979
F-0.0758620788311
aF-0.0620692351769
aF-1.14482780983
asS'2000-01-01 00:25:30.270387'
p1980
(lp1981
F-0.0620692351769
aF-0.0620692351769
aF-1.13793101804
asS'2000-01-01 00:26:09.813141'
p1982
(lp1983
F-0.0689652870441
aF-0.0620692351769
aF-1.13793101804
asS'2000-01-01 00:25:41.030810'
p1984
(lp1985
F-0.0689652870441
aF-0.0551724433899
aF-1.14482780983
asS'2000-01-01 00:26:19.832349'
p1986
(lp1987
F-0.0965517142723
aF-0.0827588706181
aF-1.13793101804
asS'2000-01-01 00:25:32.089805'
p1988
(lp1989
F-0.0758620788311
aF-0.0758620788311
aF-1.14482780983
asS'2000-01-01 00:26:16.215374'
p1990
(lp1991
F-0.0896549224854
aF-0.0758620788311
aF-1.13793101804
asS'2000-01-01 00:25:24.528257'
p1992
(lp1993
F-0.103448506059
aF-0.0827588706181
aF-1.15172386169
asS'2000-01-01 00:25:48.172349'
p1994
(lp1995
F-0.0896549224854
aF-0.0758620788311
aF-1.14482780983
asS'2000-01-01 00:26:24.838755'
p1996
(lp1997
F-0.0827588706181
aF-0.0620692351769
aF-1.14482780983
asS'2000-01-01 00:25:29.739234'
p1998
(lp1999
F-0.0896549224854
aF-0.0758620788311
aF-1.15862065348
asS'2000-01-01 00:26:14.293510'
p2000
(lp2001
F-0.0827588706181
aF-0.0689652870441
aF-1.13793101804
asS'2000-01-01 00:26:10.992442'
p2002
(lp2003
F-0.0827588706181
aF-0.0620692351769
aF-1.13103422625
asS'2000-01-01 00:25:22.507272'
p2004
(lp2005
F-0.0896549224854
aF-0.0758620788311
aF-1.16551744527
asS'2000-01-01 00:26:19.192205'
p2006
(lp2007
F-0.0827588706181
aF-0.0620692351769
aF-1.15862065348
asS'2000-01-01 00:25:50.510452'
p2008
(lp2009
F-0.0827588706181
aF-0.0620692351769
aF-1.14482780983
asS'2000-01-01 00:26:07.794476'
p2010
(lp2011
F-0.0896549224854
aF-0.0758620788311
aF-1.14482780983
asS'2000-01-01 00:25:51.163811'
p2012
(lp2013
F-0.0689652870441
aF-0.0551724433899
aF-1.14482780983
asS'2000-01-01 00:25:42.943829'
p2014
(lp2015
F-0.0689652870441
aF-0.0551724433899
aF-1.13103422625
asS'2000-01-01 00:26:07.263661'
p2016
(lp2017
F-0.0689652870441
aF-0.0620692351769
aF-1.13793101804
asS'2000-01-01 00:26:03.004107'
p2018
(lp2019
F-0.0965517142723
aF-0.0689652870441
aF-1.13103422625
asS'2000-01-01 00:25:47.748234'
p2020
(lp2021
F-0.0758620788311
aF-0.0551724433899
aF-1.13103422625
asS'2000-01-01 00:25:47.215605'
p2022
(lp2023
F-0.0758620788311
aF-0.0620692351769
aF-1.13103422625
asS'2000-01-01 00:26:24.621761'
p2024
(lp2025
F-0.0689652870441
aF-0.0620692351769
aF-1.13103422625
asS'2000-01-01 00:25:33.258268'
p2026
(lp2027
F-0.0758620788311
aF-0.0551724433899
aF-1.13103422625
asS'2000-01-01 00:25:22.180854'
p2028
(lp2029
F-0.0965517142723
aF-0.0827588706181
aF-1.15862065348
asS'2000-01-01 00:26:30.270050'
p2030
(lp2031
F-0.110344557927
aF-0.0896549224854
aF-1.15862065348
asS'2000-01-01 00:26:27.507923'
p2032
(lp2033
F-0.800000059194
aF-0.0758620788311
aF-0.813792902848
asS'2000-01-01 00:26:10.131071'
p2034
(lp2035
F-0.110344557927
aF-0.0896549224854
aF-1.15172386169
asS'2000-01-01 00:25:30.919219'
p2036
(lp2037
F-0.0827588706181
aF-0.0620692351769
aF-1.13793101804
asS'2000-01-01 00:26:08.006797'
p2038
(lp2039
F-0.117241349714
aF-0.0965517142723
aF-1.16551744527
asS'2000-01-01 00:25:45.715100'
p2040
(lp2041
F-0.0896549224854
aF-0.0758620788311
aF-1.14482780983
asS'2000-01-01 00:25:23.572146'
p2042
(lp2043
F-0.0896549224854
aF-0.0758620788311
aF-1.14482780983
asS'2000-01-01 00:26:29.845231'
p2044
(lp2045
F-0.110344557927
aF-0.0965517142723
aF-1.15862065348
asS'2000-01-01 00:25:43.900252'
p2046
(lp2047
F-0.0896549224854
aF-0.0827588706181
aF-1.13793101804
asS'2000-01-01 00:25:58.511721'
p2048
(lp2049
F-0.0689652870441
aF-0.0551724433899
aF-1.13793101804
asS'2000-01-01 00:26:28.355921'
p2050
(lp2051
F-0.144827776942
aF-0.0965517142723
aF-1.15172386169
asS'2000-01-01 00:25:43.687432'
p2052
(lp2053
F-0.0689652870441
aF-0.0551724433899
aF-1.13793101804
asS'2000-01-01 00:26:21.327094'
p2054
(lp2055
F-0.0827588706181
aF-0.0620692351769
aF-1.14482780983
asS'2000-01-01 00:26:15.041294'
p2056
(lp2057
F-0.0758620788311
aF-0.0620692351769
aF-1.13103422625
asS'2000-01-01 00:26:21.753083'
p2058
(lp2059
F-0.0689652870441
aF-0.0482756516029
aF-1.13793101804
asS'2000-01-01 00:26:30.484355'
p2060
(lp2061
F-0.103448506059
aF-0.0896549224854
aF-1.16551744527
asS'2000-01-01 00:26:04.066363'
p2062
(lp2063
F-0.0827588706181
aF-0.0620692351769
aF-1.13103422625
asS'2000-01-01 00:25:41.136704'
p2064
(lp2065
F-0.0758620788311
aF-0.0620692351769
aF-1.13103422625
asS'2000-01-01 00:25:39.328653'
p2066
(lp2067
F-0.0758620788311
aF-0.0689652870441
aF-1.13793101804
asS'2000-01-01 00:25:31.876451'
p2068
(lp2069
F-0.0896549224854
aF-0.0827588706181
aF-1.14482780983
asS'2000-01-01 00:25:29.847011'
p2070
(lp2071
F-0.0689652870441
aF-0.0482756516029
aF-1.14482780983
asS'2000-01-01 00:25:52.119597'
p2072
(lp2073
F-0.0689652870441
aF-0.0551724433899
aF-1.13793101804
asS'2000-01-01 00:25:34.425787'
p2074
(lp2075
F-0.0689652870441
aF-0.0620692351769
aF-1.14482780983
asS'2000-01-01 00:25:50.191912'
p2076
(lp2077
F-0.0758620788311
aF-0.0620692351769
aF-1.13793101804
asS'2000-01-01 00:25:21.436077'
p2078
(lp2079
F-0.110344557927
aF-0.0965517142723
aF-1.16551744527
asS'2000-01-01 00:25:49.766451'
p2080
(lp2081
F-0.0689652870441
aF-0.0551724433899
aF-1.13793101804
asS'2000-01-01 00:25:28.785156'
p2082
(lp2083
F-0.0896549224854
aF-0.0758620788311
aF-1.14482780983
asS'2000-01-01 00:26:25.801089'
p2084
(lp2085
F-0.0896549224854
aF-0.0551724433899
aF-1.15862065348
asS'2000-01-01 00:25:34.319791'
p2086
(lp2087
F-0.0896549224854
aF-0.0689652870441
aF-1.13793101804
asS'2000-01-01 00:26:07.369374'
p2088
(lp2089
F-0.0896549224854
aF-0.0758620788311
aF-1.15172386169
asS'2000-01-01 00:26:26.976765'
p2090
(lp2091
F-0.765517580098
aF-0.0965517142723
aF-0.882758600958
asS'2000-01-01 00:26:04.278228'
p2092
(lp2093
F-0.0758620788311
aF-0.0620692351769
aF-1.12413817439
asS'2000-01-01 00:26:19.299695'
p2094
(lp2095
F-0.0758620788311
aF-0.0620692351769
aF-1.13103422625
asS'2000-01-01 00:26:20.150826'
p2096
(lp2097
F-0.0758620788311
aF-0.0620692351769
aF-1.14482780983
asS'2000-01-01 00:25:27.615453'
p2098
(lp2099
F-0.103448506059
aF-0.0896549224854
aF-1.16551744527
asS'2000-01-01 00:26:06.297767'
p2100
(lp2101
F-0.0758620788311
aF-0.0620692351769
aF-1.13793101804
asS'2000-01-01 00:26:23.137513'
p2102
(lp2103
F-0.0758620788311
aF-0.0620692351769
aF-1.13103422625
asS'2000-01-01 00:26:03.322281'
p2104
(lp2105
F-0.0758620788311
aF-0.0620692351769
aF-1.13103422625
asS'2000-01-01 00:25:35.176952'
p2106
(lp2107
F-0.0689652870441
aF-0.0620692351769
aF-1.13103422625
asS'2000-01-01 00:26:14.935810'
p2108
(lp2109
F-0.0827588706181
aF-0.0827588706181
aF-1.15172386169
asS'2000-01-01 00:25:54.142087'
p2110
(lp2111
F-0.0827588706181
aF-0.0620692351769
aF-1.13103422625
asS'2000-01-01 00:25:56.171976'
p2112
(lp2113
F-0.0689652870441
aF-0.0689652870441
aF-1.13793101804
asS'2000-01-01 00:26:24.944837'
p2114
(lp2115
F-0.0827588706181
aF-0.0689652870441
aF-1.14482780983
asS'2000-01-01 00:26:00.980574'
p2116
(lp2117
F-0.0758620788311
aF-0.0689652870441
aF-1.13103422625
asS'2000-01-01 00:25:59.900235'
p2118
(lp2119
F-0.0689652870441
aF-0.0620692351769
aF-1.14482780983
asS'2000-01-01 00:25:21.862584'
p2120
(lp2121
F-0.110344557927
aF-0.0965517142723
aF-1.15862065348
asS'2000-01-01 00:26:28.995876'
p2122
(lp2123
F-0.0689652870441
aF-0.0620692351769
aF-1.13793101804
asS'2000-01-01 00:25:28.465062'
p2124
(lp2125
F-0.0965517142723
aF-0.0896549224854
aF-1.16551744527
asS'2000-01-01 00:25:49.873062'
p2126
(lp2127
F-0.0620692351769
aF-0.0551724433899
aF-1.13793101804
asS'2000-01-01 00:25:38.479199'
p2128
(lp2129
F-0.0620692351769
aF-0.0482756516029
aF-1.13793101804
asS'2000-01-01 00:25:57.874912'
p2130
(lp2131
F-0.0965517142723
aF-0.0758620788311
aF-1.14482780983
asS'2000-01-01 00:26:11.523832'
p2132
(lp2133
F-0.0896549224854
aF-0.0758620788311
aF-1.14482780983
asS'2000-01-01 00:25:58.405764'
p2134
(lp2135
F-0.0896549224854
aF-0.0758620788311
aF-1.15862065348
asS'2000-01-01 00:26:28.144726'
p2136
(lp2137
F-0.110344557927
aF-0.0758620788311
aF-1.13793101804
asS'2000-01-01 00:26:22.178909'
p2138
(lp2139
F-0.0758620788311
aF-0.0551724433899
aF-1.13103422625
asS'2000-01-01 00:25:44.006036'
p2140
(lp2141
F-0.0896549224854
aF-0.0689652870441
aF-1.13793101804
asS'2000-01-01 00:25:29.633291'
p2142
(lp2143
F-0.0896549224854
aF-0.0689652870441
aF-1.14482780983
asS'2000-01-01 00:26:15.790221'
p2144
(lp2145
F-0.0896549224854
aF-0.0689652870441
aF-1.15172386169
asS'2000-01-01 00:25:51.907750'
p2146
(lp2147
F-0.0758620788311
aF-0.0620692351769
aF-1.13793101804
asS'2000-01-01 00:25:22.933020'
p2148
(lp2149
F-0.0896549224854
aF-0.0758620788311
aF-1.16551744527
asS'2000-01-01 00:26:19.939453'
p2150
(lp2151
F-0.0896549224854
aF-0.0620692351769
aF-1.13793101804
asS'2000-01-01 00:25:43.580317'
p2152
(lp2153
F-0.0896549224854
aF-0.0689652870441
aF-1.13793101804
asS'2000-01-01 00:25:32.728816'
p2154
(lp2155
F-0.0965517142723
aF-0.0896549224854
aF-1.16551744527
asS'2000-01-01 00:25:49.234591'
p2156
(lp2157
F-0.0689652870441
aF-0.0620692351769
aF-1.13103422625
asS'2000-01-01 00:25:38.054216'
p2158
(lp2159
F-0.0965517142723
aF-0.0896549224854
aF-1.16551744527
asS'2000-01-01 00:25:35.602028'
p2160
(lp2161
F-0.0896549224854
aF-0.0689652870441
aF-1.14482780983
asS'2000-01-01 00:25:40.817336'
p2162
(lp2163
F-0.0896549224854
aF-0.0758620788311
aF-1.14482780983
asS'2000-01-01 00:26:25.906745'
p2164
(lp2165
F0.0137932547208
aF-0.0620692351769
aF-1.12413817439
asS'2000-01-01 00:25:44.537119'
p2166
(lp2167
F-0.0896549224854
aF-0.0689652870441
aF-1.13793101804
asS'2000-01-01 00:25:30.377793'
p2168
(lp2169
F-0.0758620788311
aF-0.0620692351769
aF-1.15172386169
asS'2000-01-01 00:25:23.997790'
p2170
(lp2171
F-0.110344557927
aF-0.0965517142723
aF-1.15862065348
asS'2000-01-01 00:25:52.013989'
p2172
(lp2173
F-0.0827588706181
aF-0.0689652870441
aF-1.13793101804
asS'2000-01-01 00:26:13.443875'
p2174
(lp2175
F-0.0965517142723
aF-0.0758620788311
aF-1.14482780983
asS'2000-01-01 00:26:15.255961'
p2176
(lp2177
F-0.0758620788311
aF-0.0620692351769
aF-1.13103422625
asS'2000-01-01 00:26:18.980477'
p2178
(lp2179
F-0.0689652870441
aF-0.0620692351769
aF-1.13103422625
asS'2000-01-01 00:26:05.023342'
p2180
(lp2181
F-0.0827588706181
aF-0.0620692351769
aF-1.13793101804
asS'2000-01-01 00:25:42.625935'
p2182
(lp2183
F-0.0896549224854
aF-0.0758620788311
aF-1.13793101804
asS'2000-01-01 00:26:30.376737'
p2184
(lp2185
F-0.103448506059
aF-0.0896549224854
aF-1.16551744527
asS'2000-01-01 00:25:32.301460'
p2186
(lp2187
F-0.0896549224854
aF-0.0827588706181
aF-1.15172386169
asS'2000-01-01 00:26:23.667932'
p2188
(lp2189
F-0.0689652870441
aF-0.0551724433899
aF-1.13793101804
asS'2000-01-01 00:26:30.804709'
p2190
(lp2191
F-0.110344557927
aF-0.0896549224854
aF-1.16551744527
asS'2000-01-01 00:26:01.617409'
p2192
(lp2193
F-0.117241349714
aF-0.0965517142723
aF-1.16551744527
asS'2000-01-01 00:25:48.383288'
p2194
(lp2195
F-0.0689652870441
aF-0.0620692351769
aF-1.13793101804
asS'2000-01-01 00:25:38.160172'
p2196
(lp2197
F-0.0896549224854
aF-0.0758620788311
aF-1.15172386169
asS'2000-01-01 00:26:31.123051'
p2198
(lp2199
F-0.110344557927
aF-0.0965517142723
aF-1.16551744527
asS'2000-01-01 00:25:57.448684'
p2200
(lp2201
F-0.0758620788311
aF-0.0620692351769
aF-1.13793101804
asS'2000-01-01 00:25:30.811474'
p2202
(lp2203
F-0.0758620788311
aF-0.0689652870441
aF-1.12413817439
asS'2000-01-01 00:25:53.823974'
p2204
(lp2205
F-0.0758620788311
aF-0.0620692351769
aF-1.13103422625
asS'2000-01-01 00:26:13.550777'
p2206
(lp2207
F-0.0689652870441
aF-0.0551724433899
aF-1.14482780983
asS'2000-01-01 00:25:56.277581'
p2208
(lp2209
F-0.0758620788311
aF-0.0620692351769
aF-1.13103422625
asS'2000-01-01 00:26:20.796050'
p2210
(lp2211
F-0.0896549224854
aF-0.0827588706181
aF-1.15172386169
asS'2000-01-01 00:26:29.951182'
p2212
(lp2213
F-0.103448506059
aF-0.0896549224854
aF-1.16551744527
asS'2000-01-01 00:25:57.768514'
p2214
(lp2215
F-0.0689652870441
aF-0.0620692351769
aF-1.13793101804
asS'2000-01-01 00:25:45.823202'
p2216
(lp2217
F-0.0689652870441
aF-0.0551724433899
aF-1.13103422625
asS'2000-01-01 00:26:30.591617'
p2218
(lp2219
F-0.124138141501
aF-0.110344557927
aF-1.16551744527
asS'2000-01-01 00:26:24.732519'
p2220
(lp2221
F-0.103448506059
aF-0.0827588706181
aF-1.15172386169
asS'2000-01-01 00:25:47.961040'
p2222
(lp2223
F-0.0620692351769
aF-0.0551724433899
aF-1.13793101804
asS'2000-01-01 00:25:39.436036'
p2224
(lp2225
F-0.0758620788311
aF-0.0689652870441
aF-1.12413817439
asS'2000-01-01 00:26:10.025341'
p2226
(lp2227
F-0.0896549224854
aF-0.0620692351769
aF-1.14482780983
asS'2000-01-01 00:25:40.711259'
p2228
(lp2229
F-0.0965517142723
aF-0.0827588706181
aF-1.15172386169
asS'2000-01-01 00:26:14.506070'
p2230
(lp2231
F-0.0758620788311
aF-0.0620692351769
aF-1.13793101804
asS'2000-01-01 00:25:58.193743'
p2232
(lp2233
F-0.0620692351769
aF-0.0482756516029
aF-1.13103422625
asS'2000-01-01 00:26:20.902843'
p2234
(lp2235
F-0.103448506059
aF-0.0827588706181
aF-1.16551744527
asS'2000-01-01 00:26:24.410570'
p2236
(lp2237
F-0.0827588706181
aF-0.0689652870441
aF-1.14482780983
asS'2000-01-01 00:26:00.235231'
p2238
(lp2239
F-0.0758620788311
aF-0.0620692351769
aF-1.13103422625
asS'2000-01-01 00:26:29.101565'
p2240
(lp2241
F-0.0896549224854
aF-0.0758620788311
aF-1.14482780983
asS'2000-01-01 00:25:20.267589'
p2242
(lp2243
F-0.117241349714
aF-0.0965517142723
aF-1.15862065348
asS'2000-01-01 00:25:40.285038'
p2244
(lp2245
F-0.0758620788311
aF-0.0689652870441
aF-1.13793101804
asS'2000-01-01 00:25:29.314704'
p2246
(lp2247
F-0.0689652870441
aF-0.0620692351769
aF-1.15172386169
asS'2000-01-01 00:25:28.253986'
p2248
(lp2249
F-0.110344557927
aF-0.0896549224854
aF-1.15172386169
asS'2000-01-01 00:25:46.573777'
p2250
(lp2251
F-0.0758620788311
aF-0.0620692351769
aF-1.13793101804
asS'2000-01-01 00:26:23.349851'
p2252
(lp2253
F-0.0758620788311
aF-0.0551724433899
aF-1.13793101804
asS'2000-01-01 00:26:31.441676'
p2254
(lp2255
F-0.103448506059
aF-0.0896549224854
aF-1.16551744527
asS'2000-01-01 00:26:11.629374'
p2256
(lp2257
F-0.0896549224854
aF-0.0758620788311
aF-1.14482780983
asS'2000-01-01 00:25:33.363754'
p2258
(lp2259
F-0.0758620788311
aF-0.0620692351769
aF-1.13793101804
asS'2000-01-01 00:25:27.297663'
p2260
(lp2261
F-0.110344557927
aF-0.0896549224854
aF-1.16551744527
asS'2000-01-01 00:25:33.469217'
p2262
(lp2263
F-0.0620692351769
aF-0.0551724433899
aF-1.13103422625
asS'2000-01-01 00:26:02.791033'
p2264
(lp2265
F-0.0827588706181
aF-0.0620692351769
aF-1.13793101804
asS'2000-01-01 00:25:31.983734'
p2266
(lp2267
F-0.0827588706181
aF-0.0620692351769
aF-1.14482780983
asS'2000-01-01 00:26:11.948481'
p2268
(lp2269
F-0.0620692351769
aF-0.0551724433899
aF-1.13793101804
asS'2000-01-01 00:26:08.963081'
p2270
(lp2271
F-0.0689652870441
aF-0.0620692351769
aF-1.13103422625
asS'2000-01-01 00:25:38.585965'
p2272
(lp2273
F-0.0896549224854
aF-0.0689652870441
aF-1.14482780983
asS'2000-01-01 00:25:55.960479'
p2274
(lp2275
F-0.0758620788311
aF-0.0620692351769
aF-1.13793101804
asS'2000-01-01 00:25:23.678027'
p2276
(lp2277
F-0.0965517142723
aF-0.0896549224854
aF-1.15862065348
asS'2000-01-01 00:25:25.169367'
p2278
(lp2279
F-0.103448506059
aF-0.0896549224854
aF-1.14482780983
asS'2000-01-01 00:26:16.533204'
p2280
(lp2281
F-0.0827588706181
aF-0.0689652870441
aF-1.13793101804
asS'2000-01-01 00:25:25.276093'
p2282
(lp2283
F-0.0896549224854
aF-0.0827588706181
aF-1.15172386169
asS'2000-01-01 00:26:19.619174'
p2284
(lp2285
F-0.0758620788311
aF-0.0620692351769
aF-1.13103422625
asS'2000-01-01 00:26:31.229253'
p2286
(lp2287
F-0.0896549224854
aF-0.0758620788311
aF-1.15862065348
asS'2000-01-01 00:26:17.281229'
p2288
(lp2289
F-0.0827588706181
aF-0.0758620788311
aF-1.13793101804
asS'2000-01-01 00:25:21.647960'
p2290
(lp2291
F-0.103448506059
aF-0.0896549224854
aF-1.16551744527
asS'2000-01-01 00:25:38.797389'
p2292
(lp2293
F-0.0689652870441
aF-0.0482756516029
aF-1.13793101804
asS'2000-01-01 00:25:30.483902'
p2294
(lp2295
F-0.0758620788311
aF-0.0620692351769
aF-1.13793101804
asS'2000-01-01 00:25:34.000195'
p2296
(lp2297
F-0.0689652870441
aF-0.0551724433899
aF-1.12413817439
asS'2000-01-01 00:25:50.731908'
p2298
(lp2299
F-0.0689652870441
aF-0.0482756516029
aF-1.13103422625
asS'2000-01-01 00:26:23.244158'
p2300
(lp2301
F-0.0896549224854
aF-0.0620692351769
aF-1.13793101804
asS'2000-01-01 00:26:07.156926'
p2302
(lp2303
F-0.0689652870441
aF-0.0551724433899
aF-1.13793101804
asS'2000-01-01 00:26:27.613499'
p2304
(lp2305
F-0.662068662972
aF-0.0896549224854
aF-0.958620350936
asS'2000-01-01 00:26:12.266463'
p2306
(lp2307
F-0.110344557927
aF-0.0965517142723
aF-1.16551744527
asS'2000-01-01 00:25:28.996537'
p2308
(lp2309
F-0.0896549224854
aF-0.0689652870441
aF-1.15172386169
asS'2000-01-01 00:25:37.100099'
p2310
(lp2311
F-0.0758620788311
aF-0.0551724433899
aF-1.12413817439
asS'2000-01-01 00:26:26.012186'
p2312
(lp2313
F-0.0689652870441
aF-0.0620692351769
aF-1.14482780983
asS'2000-01-01 00:26:29.738824'
p2314
(lp2315
F-0.103448506059
aF-0.0896549224854
aF-1.16551744527
asS'2000-01-01 00:26:24.199217'
p2316
(lp2317
F-0.0758620788311
aF-0.0551724433899
aF-1.15172386169
asS'2000-01-01 00:26:31.335359'
p2318
(lp2319
F-0.110344557927
aF-0.0896549224854
aF-1.15862065348
asS'2000-01-01 00:26:21.433540'
p2320
(lp2321
F-0.0620692351769
aF-0.0551724433899
aF-1.12413817439
asS'2000-01-01 00:26:12.585876'
p2322
(lp2323
F-0.0758620788311
aF-0.0620692351769
aF-1.13103422625
asS'2000-01-01 00:26:28.675315'
p2324
(lp2325
F-0.310344860472
aF0.144827859155
aF-0.965517142723
asS'2000-01-01 00:25:39.646957'
p2326
(lp2327
F-0.0827588706181
aF-0.0620692351769
aF-1.13793101804
asS'2000-01-01 00:25:57.980941'
p2328
(lp2329
F-0.0758620788311
aF-0.0620692351769
aF-1.12413817439
asS'2000-01-01 00:25:55.853599'
p2330
(lp2331
F-0.0758620788311
aF-0.0620692351769
aF-1.13103422625
asS'2000-01-01 00:26:14.187576'
p2332
(lp2333
F-0.0758620788311
aF-0.0620692351769
aF-1.13793101804
asS'2000-01-01 00:25:49.128325'
p2334
(lp2335
F-0.0620692351769
aF-0.0620692351769
aF-1.1172413826
asS'2000-01-01 00:25:39.115967'
p2336
(lp2337
F-0.0896549224854
aF-0.0689652870441
aF-1.14482780983
asS'2000-01-01 00:25:49.659680'
p2338
(lp2339
F-0.0689652870441
aF-0.0620692351769
aF-1.13103422625
asS'2000-01-01 00:26:04.704309'
p2340
(lp2341
F-0.0758620788311
aF-0.0620692351769
aF-1.13103422625
asS'2000-01-01 00:25:47.003859'
p2342
(lp2343
F-0.0758620788311
aF-0.0620692351769
aF-1.13793101804
asS'2000-01-01 00:25:58.087890'
p2344
(lp2345
F-0.0758620788311
aF-0.0689652870441
aF-1.13793101804
asS'2000-01-01 00:25:41.455314'
p2346
(lp2347
F-0.0758620788311
aF-0.0620692351769
aF-1.13793101804
asS'2000-01-01 00:25:36.348124'
p2348
(lp2349
F-0.0827588706181
aF-0.0689652870441
aF-1.13793101804
asS'2000-01-01 00:25:40.072484'
p2350
(lp2351
F-0.0896549224854
aF-0.0827588706181
aF-1.15172386169
asS'2000-01-01 00:26:07.900489'
p2352
(lp2353
F-0.0758620788311
aF-0.0620692351769
aF-1.14482780983
asS'2000-01-01 00:26:18.874779'
p2354
(lp2355
F-0.0758620788311
aF-0.0620692351769
aF-1.15172386169
asS'2000-01-01 00:25:24.634689'
p2356
(lp2357
F-0.103448506059
aF-0.0827588706181
aF-1.14482780983
asS'2000-01-01 00:25:19.962552'
p2358
(lp2359
F-0.137930985155
aF-0.124138141501
aF-1.19310313258
asS'2000-01-01 00:25:35.496372'
p2360
(lp2361
F-0.0758620788311
aF-0.0620692351769
aF-1.13103422625
asS'2000-01-01 00:25:31.343283'
p2362
(lp2363
F-0.0896549224854
aF-0.0758620788311
aF-1.14482780983
asS'2000-01-01 00:26:23.030039'
p2364
(lp2365
F-0.103448506059
aF-0.0896549224854
aF-1.15172386169
asS'2000-01-01 00:25:52.869149'
p2366
(lp2367
F-0.0689652870441
aF-0.0551724433899
aF-1.13793101804
asS'2000-01-01 00:25:34.962058'
p2368
(lp2369
F-0.0758620788311
aF-0.0620692351769
aF-1.12413817439
asS'2000-01-01 00:26:28.250211'
p2370
(lp2371
F-0.137930985155
aF-0.0482756516029
aF-1.13103422625
asS'2000-01-01 00:26:09.600051'
p2372
(lp2373
F-0.0827588706181
aF-0.0620692351769
aF-1.13103422625
asS'2000-01-01 00:25:54.787786'
p2374
(lp2375
F-0.0758620788311
aF-0.0620692351769
aF-1.13103422625
asS'2000-01-01 00:26:01.191887'
p2376
(lp2377
F-0.0827588706181
aF-0.0758620788311
aF-1.14482780983
asS'2000-01-01 00:26:08.431935'
p2378
(lp2379
F-0.0620692351769
aF-0.0551724433899
aF-1.13103422625
asS'2000-01-01 00:25:33.576229'
p2380
(lp2381
F-0.0827588706181
aF-0.0620692351769
aF-1.13103422625
asS'2000-01-01 00:25:47.854018'
p2382
(lp2383
F-0.0896549224854
aF-0.0689652870441
aF-1.13793101804
asS'2000-01-01 00:26:26.331826'
p2384
(lp2385
F-0.213792735133
aF-0.103448506059
aF-1.13103422625
asS'2000-01-01 00:26:10.237026'
p2386
(lp2387
F-0.0896549224854
aF-0.0689652870441
aF-1.14482780983
asS'2000-01-01 00:26:05.340829'
p2388
(lp2389
F-0.0896549224854
aF-0.0758620788311
aF-1.13793101804
asS'2000-01-01 00:25:33.894515'
p2390
(lp2391
F-0.0689652870441
aF-0.0620692351769
aF-1.13793101804
asS'2000-01-01 00:26:19.086180'
p2392
(lp2393
F-0.0758620788311
aF-0.0620692351769
aF-1.14482780983
asS'2000-01-01 00:26:28.782172'
p2394
(lp2395
F-0.0827588706181
aF-0.0620692351769
aF-1.13103422625
asS'2000-01-01 00:25:45.609476'
p2396
(lp2397
F-0.0896549224854
aF-0.0689652870441
aF-1.13793101804
asS'2000-01-01 00:26:13.020324'
p2398
(lp2399
F-0.0758620788311
aF-0.0551724433899
aF-1.13793101804
asS'2000-01-01 00:26:01.298937'
p2400
(lp2401
F-0.0689652870441
aF-0.0482756516029
aF-1.15172386169
asS'2000-01-01 00:25:55.428848'
p2402
(lp2403
F-0.0758620788311
aF-0.0689652870441
aF-1.14482780983
asS'2000-01-01 00:26:05.872573'
p2404
(lp2405
F-0.110344557927
aF-0.0965517142723
aF-1.17241349714
asS'2000-01-01 00:25:42.200350'
p2406
(lp2407
F-0.0689652870441
aF-0.0551724433899
aF-1.13103422625
asS'2000-01-01 00:26:03.429232'
p2408
(lp2409
F-0.0758620788311
aF-0.0620692351769
aF-1.12413817439
asS'2000-01-01 00:26:26.543444'
p2410
(lp2411
F-0.496551579443
aF-0.103448506059
aF-1.04827568449
asS'2000-01-01 00:25:24.209236'
p2412
(lp2413
F-0.0896549224854
aF-0.0758620788311
aF-1.15862065348
asS'2000-01-01 00:25:52.226916'
p2414
(lp2415
F-0.0896549224854
aF-0.0758620788311
aF-1.13793101804
asS'2000-01-01 00:26:21.965137'
p2416
(lp2417
F-0.0896549224854
aF-0.0758620788311
aF-1.15172386169
asS'2000-01-01 00:26:10.670333'
p2418
(lp2419
F-0.0896549224854
aF-0.0689652870441
aF-1.13793101804
asS'2000-01-01 00:25:59.048349'
p2420
(lp2421
F-0.0620692351769
aF-0.0482756516029
aF-1.14482780983
asS'2000-01-01 00:25:29.207481'
p2422
(lp2423
F-0.0896549224854
aF-0.0689652870441
aF-1.14482780983
asS'2000-01-01 00:26:30.058000'
p2424
(lp2425
F-0.0896549224854
aF-0.0758620788311
aF-1.17931028892
asS'2000-01-01 00:26:14.081777'
p2426
(lp2427
F-0.0689652870441
aF-0.0482756516029
aF-1.13793101804
asS'2000-01-01 00:25:40.390854'
p2428
(lp2429
F-0.0896549224854
aF-0.0827588706181
aF-1.14482780983
asS'2000-01-01 00:25:27.084401'
p2430
(lp2431
F-0.110344557927
aF-0.0896549224854
aF-1.17241349714
asS'2000-01-01 00:26:01.511602'
p2432
(lp2433
F-0.0896549224854
aF-0.0758620788311
aF-1.14482780983
asS'2000-01-01 00:25:34.213370'
p2434
(lp2435
F-0.0896549224854
aF-0.0758620788311
aF-1.14482780983
asS'2000-01-01 00:26:02.684507'
p2436
(lp2437
F-0.110344557927
aF-0.0965517142723
aF-1.15862065348
asS'2000-01-01 00:26:13.338090'
p2438
(lp2439
F-0.0965517142723
aF-0.0758620788311
aF-1.15172386169
asS'2000-01-01 00:25:48.490208'
p2440
(lp2441
F-0.0758620788311
aF-0.0620692351769
aF-1.14482780983
asS'2000-01-01 00:25:51.376133'
p2442
(lp2443
F-0.0758620788311
aF-0.0689652870441
aF-1.15172386169
asS'2000-01-01 00:25:49.978701'
p2444
(lp2445
F-0.0689652870441
aF-0.0551724433899
aF-1.12413817439
asS'2000-01-01 00:25:37.842334'
p2446
(lp2447
F-0.0689652870441
aF-0.0551724433899
aF-1.15172386169
asS'2000-01-01 00:26:09.282329'
p2448
(lp2449
F-0.0758620788311
aF-0.0620692351769
aF-1.13103422625
asS'2000-01-01 00:25:35.923253'
p2450
(lp2451
F-0.110344557927
aF-0.0896549224854
aF-1.16551744527
asS'2000-01-01 00:25:22.613784'
p2452
(lp2453
F-0.110344557927
aF-0.0896549224854
aF-1.16551744527
asS'2000-01-01 00:26:12.479818'
p2454
(lp2455
F-0.0689652870441
aF-0.0551724433899
aF-1.15862065348
asS'2000-01-01 00:25:20.158856'
p2456
(lp2457
F-0.144827776942
aF-0.131034193368
aF-1.19310313258
asS'2000-01-01 00:25:57.555998'
p2458
(lp2459
F-0.0758620788311
aF-0.0620692351769
aF-1.15172386169
asS'2000-01-01 00:25:40.178811'
p2460
(lp2461
F-0.0896549224854
aF-0.0827588706181
aF-1.13793101804
asS'2000-01-01 00:25:23.252490'
p2462
(lp2463
F-0.110344557927
aF-0.0896549224854
aF-1.15862065348
asS'2000-01-01 00:26:21.221368'
p2464
(lp2465
F-0.0827588706181
aF-0.0620692351769
aF-1.15172386169
asS'2000-01-01 00:26:09.388644'
p2466
(lp2467
F-0.0758620788311
aF-0.0689652870441
aF-1.13103422625
asS'2000-01-01 00:25:57.025404'
p2468
(lp2469
F-0.0551724433899
aF-0.0551724433899
aF-1.14482780983
asS'2000-01-01 00:26:03.747339'
p2470
(lp2471
F-0.0965517142723
aF-0.0896549224854
aF-1.15862065348
asS'2000-01-01 00:25:53.504376'
p2472
(lp2473
F-0.0758620788311
aF-0.0620692351769
aF-1.13103422625
asS'2000-01-01 00:25:27.936023'
p2474
(lp2475
F-0.0965517142723
aF-0.0827588706181
aF-1.15862065348
asS'2000-01-01 00:26:22.818378'
p2476
(lp2477
F-0.0896549224854
aF-0.0758620788311
aF-1.13793101804
asS'2000-01-01 00:26:02.363088'
p2478
(lp2479
F-0.0758620788311
aF-0.0551724433899
aF-1.14482780983
asS'2000-01-01 00:25:51.056586'
p2480
(lp2481
F-0.0896549224854
aF-0.0758620788311
aF-1.14482780983
asS'2000-01-01 00:26:06.731355'
p2482
(lp2483
F-0.0965517142723
aF-0.0827588706181
aF-1.15862065348
asS'2000-01-01 00:26:17.703958'
p2484
(lp2485
F-0.110344557927
aF-0.0896549224854
aF-1.15862065348
asS'2000-01-01 00:26:19.407104'
p2486
(lp2487
F-0.0758620788311
aF-0.0620692351769
aF-1.15862065348
asS'2000-01-01 00:25:59.155541'
p2488
(lp2489
F-0.0896549224854
aF-0.0620692351769
aF-1.13793101804
asS'2000-01-01 00:25:34.107203'
p2490
(lp2491
F-0.0758620788311
aF-0.0620692351769
aF-1.13103422625
asS'2000-01-01 00:26:05.554466'
p2492
(lp2493
F-0.0758620788311
aF-0.0551724433899
aF-1.13793101804
asS'2000-01-01 00:25:50.625569'
p2494
(lp2495
F-0.0758620788311
aF-0.0620692351769
aF-1.13793101804
asS'2000-01-01 00:26:18.449116'
p2496
(lp2497
F-0.0896549224854
aF-0.0689652870441
aF-1.15862065348
asS'2000-01-01 00:26:26.870937'
p2498
(lp2499
F-0.662068662972
aF-0.103448506059
aF-0.917241080054
asS'2000-01-01 00:25:26.233118'
p2500
(lp2501
F-0.110344557927
aF-0.0965517142723
aF-1.16551744527
asS'2000-01-01 00:25:58.624035'
p2502
(lp2503
F-0.0965517142723
aF-0.0896549224854
aF-1.13793101804
asS'2000-01-01 00:25:32.939957'
p2504
(lp2505
F-0.0758620788311
aF-0.0689652870441
aF-1.13793101804
asS'2000-01-01 00:26:16.108151'
p2506
(lp2507
F-0.0758620788311
aF-0.0551724433899
aF-1.14482780983
asS'2000-01-01 00:26:03.853528'
p2508
(lp2509
F-0.0689652870441
aF-0.0482756516029
aF-1.1172413826
asS'2000-01-01 00:25:26.446022'
p2510
(lp2511
F-0.0896549224854
aF-0.0758620788311
aF-1.14482780983
asS'2000-01-01 00:25:20.060751'
p2512
(lp2513
F-0.137930985155
aF-0.131034193368
aF-1.19999992436
asS'2000-01-01 00:25:31.237080'
p2514
(lp2515
F-0.0827588706181
aF-0.0620692351769
aF-1.13103422625
asS'2000-01-01 00:25:54.248985'
p2516
(lp2517
F-0.0758620788311
aF-0.0689652870441
aF-1.13103422625
asS'2000-01-01 00:25:30.705336'
p2518
(lp2519
F-0.0758620788311
aF-0.0620692351769
aF-1.13793101804
asS'2000-01-01 00:25:37.312514'
p2520
(lp2521
F-0.0689652870441
aF-0.0620692351769
aF-1.13103422625
asS'2000-01-01 00:25:36.029654'
p2522
(lp2523
F-0.0827588706181
aF-0.0620692351769
aF-1.13793101804
asS'2000-01-01 00:26:22.710381'
p2524
(lp2525
F-0.0827588706181
aF-0.0620692351769
aF-1.15172386169
asS'2000-01-01 00:25:26.019530'
p2526
(lp2527
F-0.110344557927
aF-0.0896549224854
aF-1.16551744527
asS'2000-01-01 00:26:01.723149'
p2528
(lp2529
F-0.0896549224854
aF-0.0689652870441
aF-1.13793101804
asS'2000-01-01 00:26:08.643053'
p2530
(lp2531
F-0.0758620788311
aF-0.0620692351769
aF-1.13103422625
asS'2000-01-01 00:25:26.873284'
p2532
(lp2533
F-0.110344557927
aF-0.0896549224854
aF-1.15862065348
asS'2000-01-01 00:26:17.174316'
p2534
(lp2535
F-0.0758620788311
aF-0.0620692351769
aF-1.13103422625
asS'2000-01-01 00:25:28.572121'
p2536
(lp2537
F-0.0827588706181
aF-0.0758620788311
aF-1.15172386169
asS'2000-01-01 00:26:25.050791'
p2538
(lp2539
F-0.0965517142723
aF-0.0827588706181
aF-1.13793101804
asS'2000-01-01 00:25:29.101958'
p2540
(lp2541
F-0.0758620788311
aF-0.0482756516029
aF-1.12413817439
asS'2000-01-01 00:26:28.463426'
p2542
(lp2543
F-0.110344557927
aF-0.0689652870441
aF-1.13103422625
asS'2000-01-01 00:26:19.724802'
p2544
(lp2545
F-0.0689652870441
aF-0.0620692351769
aF-1.13103422625
asS'2000-01-01 00:25:50.085864'
p2546
(lp2547
F-0.0758620788311
aF-0.0620692351769
aF-1.12413817439
asS'2000-01-01 00:26:15.363588'
p2548
(lp2549
F-0.0827588706181
aF-0.0689652870441
aF-1.14482780983
asS'2000-01-01 00:25:36.242171'
p2550
(lp2551
F-0.0689652870441
aF-0.0551724433899
aF-1.13793101804
asS'2000-01-01 00:26:21.540967'
p2552
(lp2553
F-0.0896549224854
aF-0.0689652870441
aF-1.15172386169
asS'2000-01-01 00:25:26.767691'
p2554
(lp2555
F-0.103448506059
aF-0.103448506059
aF-1.16551744527
asS'2000-01-01 00:26:01.831349'
p2556
(lp2557
F-0.0758620788311
aF-0.0620692351769
aF-1.15172386169
asS'2000-01-01 00:26:04.491540'
p2558
(lp2559
F-0.0758620788311
aF-0.0620692351769
aF-1.13103422625
asS'2000-01-01 00:25:57.131070'
p2560
(lp2561
F-0.0758620788311
aF-0.0689652870441
aF-1.14482780983
asS'2000-01-01 00:26:21.010109'
p2562
(lp2563
F-0.0758620788311
aF-0.0551724433899
aF-1.15172386169
asS'2000-01-01 00:25:21.223065'
p2564
(lp2565
F-0.0965517142723
aF-0.0827588706181
aF-1.15862065348
asS'2000-01-01 00:26:14.723604'
p2566
(lp2567
F-0.0827588706181
aF-0.0689652870441
aF-1.14482780983
asS'2000-01-01 00:25:49.340382'
p2568
(lp2569
F-0.0827588706181
aF-0.0689652870441
aF-1.15172386169
asS'2000-01-01 00:25:50.298316'
p2570
(lp2571
F-0.0758620788311
aF-0.0620692351769
aF-1.13793101804
asS'2000-01-01 00:26:11.417974'
p2572
(lp2573
F-0.0758620788311
aF-0.0551724433899
aF-1.13103422625
asS'2000-01-01 00:26:16.321146'
p2574
(lp2575
F-0.0689652870441
aF-0.0551724433899
aF-1.13793101804
asS'2000-01-01 00:26:08.220045'
p2576
(lp2577
F-0.0827588706181
aF-0.0689652870441
aF-1.13103422625
asS'2000-01-01 00:25:36.675304'
p2578
(lp2579
F-0.0689652870441
aF-0.0620692351769
aF-1.12413817439
asS'2000-01-01 00:25:45.396576'
p2580
(lp2581
F-0.0896549224854
aF-0.0689652870441
aF-1.15172386169
asS'2000-01-01 00:25:54.462353'
p2582
(lp2583
F-0.0896549224854
aF-0.0758620788311
aF-1.14482780983
asS'2000-01-01 00:26:06.404387'
p2584
(lp2585
F-0.0896549224854
aF-0.0758620788311
aF-1.15172386169
asS'2000-01-01 00:26:12.054588'
p2586
(lp2587
F-0.0827588706181
aF-0.0689652870441
aF-1.15172386169
asS'2000-01-01 00:26:17.387009'
p2588
(lp2589
F-0.0758620788311
aF-0.0551724433899
aF-1.13103422625
asS'2000-01-01 00:25:55.107477'
p2590
(lp2591
F-0.0758620788311
aF-0.0620692351769
aF-1.13793101804
asS'2000-01-01 00:26:13.656427'
p2592
(lp2593
F-0.0758620788311
aF-0.0620692351769
aF-1.14482780983
asS'2000-01-01 00:26:07.580612'
p2594
(lp2595
F-0.0758620788311
aF-0.0620692351769
aF-1.13103422625
asS'2000-01-01 00:26:22.924074'
p2596
(lp2597
F-0.0689652870441
aF-0.0551724433899
aF-1.13793101804
asS'2000-01-01 00:26:15.896462'
p2598
(lp2599
F-0.0827588706181
aF-0.0620692351769
aF-1.13793101804
asS'2000-01-01 00:25:53.929776'
p2600
(lp2601
F-0.0689652870441
aF-0.0482756516029
aF-1.12413817439
asS'2000-01-01 00:26:09.919112'
p2602
(lp2603
F-0.0896549224854
aF-0.0758620788311
aF-1.15172386169
asS'2000-01-01 00:25:22.719821'
p2604
(lp2605
F-0.103448506059
aF-0.0896549224854
aF-1.15862065348
asS'2000-01-01 00:26:02.574304'
p2606
(lp2607
F-0.0758620788311
aF-0.0620692351769
aF-1.14482780983
asS'2000-01-01 00:26:04.384287'
p2608
(lp2609
F-0.0758620788311
aF-0.0551724433899
aF-1.13793101804
asS'2000-01-01 00:26:00.006100'
p2610
(lp2611
F-0.0758620788311
aF-0.0689652870441
aF-1.13103422625
asS'2000-01-01 00:26:09.174599'
p2612
(lp2613
F-0.0827588706181
aF-0.0620692351769
aF-1.13793101804
asS'2000-01-01 00:25:48.914856'
p2614
(lp2615
F-0.0758620788311
aF-0.0551724433899
aF-1.13793101804
asS'2000-01-01 00:26:10.778468'
p2616
(lp2617
F-0.0827588706181
aF-0.0620692351769
aF-1.13793101804
asS'2000-01-01 00:26:00.874964'
p2618
(lp2619
F-0.0758620788311
aF-0.0620692351769
aF-1.13793101804
asS'2000-01-01 00:26:01.086379'
p2620
(lp2621
F-0.0689652870441
aF-0.0620692351769
aF-1.12413817439
asS'2000-01-01 00:26:05.129160'
p2622
(lp2623
F-0.0896549224854
aF-0.0758620788311
aF-1.13793101804
asS'2000-01-01 00:25:23.890644'
p2624
(lp2625
F-0.0965517142723
aF-0.0758620788311
aF-1.15862065348
asS'2000-01-01 00:25:23.784336'
p2626
(lp2627
F-0.103448506059
aF-0.0896549224854
aF-1.16551744527
asS'2000-01-01 00:26:18.767462'
p2628
(lp2629
F-0.103448506059
aF-0.0896549224854
aF-1.17241349714
asS'2000-01-01 00:26:08.751412'
p2630
(lp2631
F-0.0896549224854
aF-0.0620692351769
aF-1.13793101804
asS'2000-01-01 00:25:22.826113'
p2632
(lp2633
F-0.110344557927
aF-0.0896549224854
aF-1.15862065348
asS'2000-01-01 00:25:26.978791'
p2634
(lp2635
F-0.110344557927
aF-0.0827588706181
aF-1.15862065348
asS'2000-01-01 00:26:25.587408'
p2636
(lp2637
F-0.0965517142723
aF-0.199999891478
aF-1.13103422625
asS'2000-01-01 00:25:51.270067'
p2638
(lp2639
F-0.0689652870441
aF-0.0620692351769
aF-1.13793101804
asS'2000-01-01 00:26:02.468753'
p2640
(lp2641
F-0.0827588706181
aF-0.0620692351769
aF-1.14482780983
asS'2000-01-01 00:25:20.799378'
p2642
(lp2643
F-0.0965517142723
aF-0.0896549224854
aF-1.15172386169
asS'2000-01-01 00:25:21.011620'
p2644
(lp2645
F-0.110344557927
aF-0.0965517142723
aF-1.16551744527
asS'2000-01-01 00:25:58.942323'
p2646
(lp2647
F-0.0758620788311
aF-0.0620692351769
aF-1.13793101804
asS'2000-01-01 00:26:29.526880'
p2648
(lp2649
F-0.0896549224854
aF-0.0758620788311
aF-1.13793101804
asS'2000-01-01 00:25:24.955044'
p2650
(lp2651
F-0.0896549224854
aF-0.0827588706181
aF-1.15862065348
asS'2000-01-01 00:26:04.916245'
p2652
(lp2653
F-0.0758620788311
aF-0.0620692351769
aF-1.13793101804
asS'2000-01-01 00:26:03.960465'
p2654
(lp2655
F-0.0896549224854
aF-0.0827588706181
aF-1.13793101804
asS'2000-01-01 00:25:31.131040'
p2656
(lp2657
F-0.0896549224854
aF-0.0689652870441
aF-1.14482780983
asS'2000-01-01 00:25:25.488611'
p2658
(lp2659
F-0.0896549224854
aF-0.0689652870441
aF-1.13793101804
asS'2000-01-01 00:25:43.474619'
p2660
(lp2661
F-0.0689652870441
aF-0.0551724433899
aF-1.12413817439
asS'2000-01-01 00:25:56.704612'
p2662
(lp2663
F-0.0896549224854
aF-0.0689652870441
aF-1.14482780983
asS'2000-01-01 00:26:22.496561'
p2664
(lp2665
F-0.0758620788311
aF-0.0620692351769
aF-1.13793101804
asS'2000-01-01 00:25:21.968711'
p2666
(lp2667
F-0.0896549224854
aF-0.0758620788311
aF-1.14482780983
asS'2000-01-01 00:25:41.668178'
p2668
(lp2669
F-0.0896549224854
aF-0.0689652870441
aF-1.15172386169
asS'2000-01-01 00:26:02.897993'
p2670
(lp2671
F-0.0689652870441
aF-0.0482756516029
aF-1.15862065348
asS'2000-01-01 00:26:01.405375'
p2672
(lp2673
F-0.0896549224854
aF-0.0689652870441
aF-1.14482780983
asS'2000-01-01 00:25:46.035372'
p2674
(lp2675
F-0.0827588706181
aF-0.0758620788311
aF-1.15172386169
asS'2000-01-01 00:25:23.358796'
p2676
(lp2677
F-0.0965517142723
aF-0.0827588706181
aF-1.15172386169
asS'2000-01-01 00:25:20.905429'
p2678
(lp2679
F-0.103448506059
aF-0.0896549224854
aF-1.16551744527
asS'2000-01-01 00:25:59.262468'
p2680
(lp2681
F-0.0689652870441
aF-0.0551724433899
aF-1.12413817439
asS'2000-01-01 00:25:29.953021'
p2682
(lp2683
F-0.0758620788311
aF-0.0620692351769
aF-1.15172386169
asS'2000-01-01 00:26:25.265062'
p2684
(lp2685
F-0.0758620788311
aF-0.0620692351769
aF-1.13793101804
asS'2000-01-01 00:25:27.404238'
p2686
(lp2687
F-0.124138141501
aF-0.110344557927
aF-1.17241349714
asS'2000-01-01 00:26:21.115677'
p2688
(lp2689
F-0.0689652870441
aF-0.0620692351769
aF-1.13103422625
asS'2000-01-01 00:26:18.554883'
p2690
(lp2691
F-0.0965517142723
aF-0.0758620788311
aF-1.15172386169
asS'2000-01-01 00:26:25.480945'
p2692
(lp2693
F-0.0896549224854
aF0.0137932547208
aF-1.15172386169
asS'2000-01-01 00:25:45.290283'
p2694
(lp2695
F-0.0758620788311
aF-0.0689652870441
aF-1.13793101804
asS'2000-01-01 00:26:16.427273'
p2696
(lp2697
F-0.0758620788311
aF-0.0620692351769
aF-1.13793101804
asS'2000-01-01 00:26:17.068870'
p2698
(lp2699
F-0.0689652870441
aF-0.0620692351769
aF-1.12413817439
asS'2000-01-01 00:25:44.865237'
p2700
(lp2701
F-0.0827588706181
aF-0.0758620788311
aF-1.13793101804
asS'2000-01-01 00:26:16.002215'
p2702
(lp2703
F-0.0896549224854
aF-0.0758620788311
aF-1.14482780983
asS'2000-01-01 00:25:56.812265'
p2704
(lp2705
F-0.0758620788311
aF-0.0551724433899
aF-1.13103422625
asS'2000-01-01 00:26:11.734872'
p2706
(lp2707
F-0.0758620788311
aF-0.0689652870441
aF-1.13793101804
assS'HallEffectSensor3'
p2708
(dp2709
S'2000-01-01 00:25:56.968491'
p2710
(lp2711
F1186.10362821
aF7.21538360674
asS'2000-01-01 00:25:49.179003'
p2712
(lp2713
F3441.85631432
aF20.9377267183
asS'2000-01-01 00:26:26.168565'
p2714
(lp2715
F1484.00667962
aF9.02760704353
asS'2000-01-01 00:26:01.988093'
p2716
(lp2717
F785.514037321
aF4.77849065876
asS'2000-01-01 00:26:19.776855'
p2718
(lp2719
F3334.33633779
aF20.283654125
asS'2000-01-01 00:26:04.755248'
p2720
(lp2721
F1815.14072711
aF11.0419834614
asS'2000-01-01 00:26:14.025103'
p2722
(lp2723
F3780.22275036
aF22.9960996779
asS'2000-01-01 00:25:21.167788'
p2724
(lp2725
F3034.49800017
aF18.4596578277
asS'2000-01-01 00:25:52.383076'
p2726
(lp2727
F2719.64527825
aF16.5443250405
asS'2000-01-01 00:25:44.702474'
p2728
(lp2729
F3798.15834024
aF23.105206638
asS'2000-01-01 00:26:02.519211'
p2730
(lp2731
F990.975286755
aF6.02836604547
asS'2000-01-01 00:25:59.950717'
p2732
(lp2733
F19.4943785055
aF0.118589485561
asS'2000-01-01 00:25:40.974309'
p2734
(lp2735
F3467.33583607
aF21.0927254209
asS'2000-01-01 00:26:28.619904'
p2736
(lp2737
F547.197267782
aF3.3287464111
asS'2000-01-01 00:25:43.419234'
p2738
(lp2739
F3748.06733997
aF22.8004897704
asS'2000-01-01 00:26:03.903995'
p2740
(lp2741
F1510.6960831
aF9.18996577829
asS'2000-01-01 00:25:22.770646'
p2742
(lp2743
F2609.72133354
aF15.8756284698
asS'2000-01-01 00:25:39.060437'
p2744
(lp2745
F3088.38715111
aF18.7874798553
asS'2000-01-01 00:25:36.619752'
p2746
(lp2747
F2428.32773128
aF14.7721629774
asS'2000-01-01 00:25:32.034470'
p2748
(lp2749
F803.556428987
aF4.88824732248
asS'2000-01-01 00:25:44.161971'
p2750
(lp2751
F3785.38379178
aF23.0274956645
asS'2000-01-01 00:25:50.348925'
p2752
(lp2753
F3219.24788278
aF19.5835404655
asS'2000-01-01 00:25:25.964161'
p2754
(lp2755
F1558.54290483
aF9.4810307113
asS'2000-01-01 00:25:56.434927'
p2756
(lp2757
F1385.83349362
aF8.43039346112
asS'2000-01-01 00:25:22.445020'
p2758
(lp2759
F2702.37421126
aF16.4392605497
asS'2000-01-01 00:25:58.562189'
p2760
(lp2761
F569.913818404
aF3.46693722601
asS'2000-01-01 00:25:54.512980'
p2762
(lp2763
F2065.22603873
aF12.5633188784
asS'2000-01-01 00:25:42.462763'
p2764
(lp2765
F3666.6765054
aF22.3053676921
asS'2000-01-01 00:26:27.876648'
p2766
(lp2767
F837.930263142
aF5.09735249134
asS'2000-01-01 00:25:26.497135'
p2768
(lp2769
F1362.74997061
aF8.28997025564
asS'2000-01-01 00:26:27.558283'
p2770
(lp2771
F961.011543119
aF5.84608862932
asS'2000-01-01 00:26:29.046271'
p2772
(lp2773
F378.779918186
aF2.30421891243
asS'2000-01-01 00:25:29.790204'
p2774
(lp2775
F83.3917558993
aF0.507294214553
asS'2000-01-01 00:25:44.595882'
p2776
(lp2777
F3796.60173533
aF23.0957373966
asS'2000-01-01 00:25:28.835624'
p2778
(lp2779
F462.116593506
aF2.81117805718
asS'2000-01-01 00:25:51.214625'
p2780
(lp2781
F3023.23964857
aF18.3911702828
asS'2000-01-01 00:26:16.265882'
p2782
(lp2783
F3766.64965726
aF22.9135309452
asS'2000-01-01 00:26:27.663897'
p2784
(lp2785
F920.293441715
aF5.59838959665
asS'2000-01-01 00:25:23.835085'
p2786
(lp2787
F2286.2723359
aF13.9080022526
asS'2000-01-01 00:26:23.294629'
p2788
(lp2789
F2454.30748827
aF14.9302047439
asS'2000-01-01 00:25:42.888643'
p2790
(lp2791
F3707.51292571
aF22.5537864901
asS'2000-01-01 00:25:43.737817'
p2792
(lp2793
F3766.89508788
aF22.9150239649
asS'2000-01-01 00:25:51.107130'
p2794
(lp2795
F3048.9649647
aF18.5476642179
asS'2000-01-01 00:25:50.894574'
p2796
(lp2797
F3098.68545383
aF18.8501271678
asS'2000-01-01 00:26:09.333039'
p2798
(lp2799
F3150.32466667
aF19.1642622239
asS'2000-01-01 00:26:20.201101'
p2800
(lp2801
F3250.1147197
aF19.7713116381
asS'2000-01-01 00:26:11.468430'
p2802
(lp2803
F3543.11419625
aF21.5537053258
asS'2000-01-01 00:25:47.160004'
p2804
(lp2805
F3703.18310701
aF22.5274470522
asS'2000-01-01 00:26:05.923530'
p2806
(lp2807
F2208.96214888
aF13.4377038378
asS'2000-01-01 00:25:31.927047'
p2808
(lp2809
F761.724628237
aF4.63377336068
asS'2000-01-01 00:26:17.542690'
p2810
(lp2811
F3666.06259896
aF22.3016331361
asS'2000-01-01 00:26:26.814195'
p2812
(lp2813
F1244.27880388
aF7.56927866181
asS'2000-01-01 00:25:21.273345'
p2814
(lp2815
F3009.02859393
aF18.3047206605
asS'2000-01-01 00:25:38.316924'
p2816
(lp2817
F2906.82059301
aF17.6829622266
asS'2000-01-01 00:26:01.882083'
p2818
(lp2819
F744.189378333
aF4.52710177509
asS'2000-01-01 00:25:53.343462'
p2820
(lp2821
F2439.44078659
aF14.8397666464
asS'2000-01-01 00:25:57.925460'
p2822
(lp2823
F818.97002423
aF4.98201231888
asS'2000-01-01 00:25:58.138349'
p2824
(lp2825
F736.051348982
aF4.47759597967
asS'2000-01-01 00:26:30.960890'
p2826
(lp2827
F381.808467855
aF2.32264238499
asS'2000-01-01 00:26:07.631294'
p2828
(lp2829
F2723.74999139
aF16.5692951014
asS'2000-01-01 00:26:13.813301'
p2830
(lp2831
F3770.70579918
aF22.9382055345
asS'2000-01-01 00:26:24.995423'
p2832
(lp2833
F1901.50509149
aF11.5673608434
asS'2000-01-01 00:25:24.792897'
p2834
(lp2835
F1970.84222252
aF11.9891570396
asS'2000-01-01 00:26:12.751480'
p2836
(lp2837
F3695.18556418
aF22.4787958737
asS'2000-01-01 00:26:12.963671'
p2838
(lp2839
F3713.94564369
aF22.5929184233
asS'2000-01-01 00:26:29.470369'
p2840
(lp2841
F210.566883988
aF1.28093431864
asS'2000-01-01 00:25:53.660466'
p2842
(lp2843
F2341.39354908
aF14.2433192421
asS'2000-01-01 00:26:13.919251'
p2844
(lp2845
F3775.69899323
aF22.968580461
asS'2000-01-01 00:25:26.818078'
p2846
(lp2847
F1242.81722204
aF7.56038747104
asS'2000-01-01 00:26:15.306346'
p2848
(lp2849
F3798.04213836
aF23.1044997511
asS'2000-01-01 00:26:25.531973'
p2850
(lp2851
F1713.74253488
aF10.425151309
asS'2000-01-01 00:25:33.732230'
p2852
(lp2853
F1447.73840537
aF8.8069774921
asS'2000-01-01 00:25:47.585601'
p2854
(lp2855
F3661.53232884
aF22.2740742989
asS'2000-01-01 00:26:21.909851'
p2856
(lp2857
F2847.7730893
aF17.3237605682
asS'2000-01-01 00:25:53.554593'
p2858
(lp2859
F2374.43264808
aF14.4443048623
asS'2000-01-01 00:26:10.937214'
p2860
(lp2861
F3461.26988732
aF21.0558246425
asS'2000-01-01 00:25:20.009745'
p2862
(lp2863
F3288.93894065
aF20.0074896927
asS'2000-01-01 00:25:45.127063'
p2864
(lp2865
F3799.66250783
aF23.1143568892
asS'2000-01-01 00:25:54.946023'
p2866
(lp2867
F1918.50114632
aF11.6707523621
asS'2000-01-01 00:25:20.636690'
p2868
(lp2869
F3156.95275459
aF19.2045826443
asS'2000-01-01 00:25:53.236257'
p2870
(lp2871
F2471.99508314
aF15.0378030844
asS'2000-01-01 00:25:48.433536'
p2872
(lp2873
F3556.96929236
aF21.6379895578
asS'2000-01-01 00:25:51.746210'
p2874
(lp2875
F2890.45913797
aF17.5834311471
asS'2000-01-01 00:25:23.197054'
p2876
(lp2877
F2483.82026693
aF15.1097388203
asS'2000-01-01 00:25:50.676385'
p2878
(lp2879
F3148.13135064
aF19.1509196995
asS'2000-01-01 00:25:59.844764'
p2880
(lp2881
F61.6867971386
aF0.375257181783
asS'2000-01-01 00:25:47.692389'
p2882
(lp2883
F3649.93734342
aF22.203538921
asS'2000-01-01 00:25:55.585637'
p2884
(lp2885
F1694.65682457
aF10.3090478607
asS'2000-01-01 00:26:00.925458'
p2886
(lp2887
F367.780758648
aF2.23730810167
asS'2000-01-01 00:26:04.011026'
p2888
(lp2889
F1549.68063288
aF9.42711915565
asS'2000-01-01 00:25:58.031212'
p2890
(lp2891
F777.830276771
aF4.73174830119
asS'2000-01-01 00:26:14.663750'
p2892
(lp2893
F3797.6473453
aF23.10209812
asS'2000-01-01 00:25:57.181479'
p2894
(lp2895
F1105.2959327
aF6.72380891828
asS'2000-01-01 00:25:29.046757'
p2896
(lp2897
F378.617970173
aF2.30323373963
asS'2000-01-01 00:25:38.636464'
p2898
(lp2899
F2987.07858451
aF18.1711929194
asS'2000-01-01 00:26:03.054528'
p2900
(lp2901
F1194.96085969
aF7.2692644998
asS'2000-01-01 00:25:25.005542'
p2902
(lp2903
F1898.01810026
aF11.546148549
asS'2000-01-01 00:25:41.293521'
p2904
(lp2905
F3517.3644291
aF21.3970626486
asS'2000-01-01 00:25:39.166892'
p2906
(lp2907
F3112.87666097
aF18.9364560525
asS'2000-01-01 00:25:41.931314'
p2908
(lp2909
F3605.50126323
aF21.9332224352
asS'2000-01-01 00:26:01.774558'
p2910
(lp2911
F702.18837862
aF4.27159853104
asS'2000-01-01 00:26:03.160060'
p2912
(lp2913
F1234.74927564
aF7.51130800879
asS'2000-01-01 00:26:30.855211'
p2914
(lp2915
F339.948146775
aF2.06799492644
asS'2000-01-01 00:25:55.798209'
p2916
(lp2917
F1618.50067292
aF9.84576974987
asS'2000-01-01 00:25:49.710252'
p2918
(lp2919
F3346.98397117
aF20.3605930402
asS'2000-01-01 00:26:06.782282'
p2920
(lp2921
F2477.71918198
aF15.072624299
asS'2000-01-01 00:26:27.770612'
p2922
(lp2923
F879.029564439
aF5.34737046428
asS'2000-01-01 00:26:08.376610'
p2924
(lp2925
F2922.0620092
aF17.7756798121
asS'2000-01-01 00:26:08.270700'
p2926
(lp2927
F2894.93968581
aF17.6106875105
asS'2000-01-01 00:26:22.335633'
p2928
(lp2929
F2732.79711489
aF16.6243311581
asS'2000-01-01 00:25:20.742302'
p2930
(lp2931
F3133.36450047
aF19.0610890253
asS'2000-01-01 00:26:21.377950'
p2932
(lp2933
F2983.42224142
aF18.1489504126
asS'2000-01-01 00:26:10.829426'
p2934
(lp2935
F3443.34602636
aF20.9467890325
asS'2000-01-01 00:26:25.425089'
p2936
(lp2937
F1751.54759598
aF10.6551295434
asS'2000-01-01 00:25:48.647842'
p2938
(lp2939
F3526.053616
aF21.4499212819
asS'2000-01-01 00:26:04.542226'
p2940
(lp2941
F1740.19093245
aF10.5860439408
asS'2000-01-01 00:25:39.697226'
p2942
(lp2943
F3229.05550616
aF19.6432028451
asS'2000-01-01 00:26:25.851472'
p2944
(lp2945
F1599.33005179
aF9.72914976646
asS'2000-01-01 00:25:34.695004'
p2946
(lp2947
F1794.01281323
aF10.913456746
asS'2000-01-01 00:25:34.906851'
p2948
(lp2949
F1867.8806677
aF11.362814537
asS'2000-01-01 00:25:58.887217'
p2950
(lp2951
F441.732437604
aF2.68717581924
asS'2000-01-01 00:26:15.521227'
p2952
(lp2953
F3794.33625986
aF23.0819559072
asS'2000-01-01 00:25:44.269489'
p2954
(lp2955
F3788.89275083
aF23.0488415951
asS'2000-01-01 00:26:19.989923'
p2956
(lp2957
F3292.85897499
aF20.0313363034
asS'2000-01-01 00:25:50.029116'
p2958
(lp2959
F3285.04630158
aF19.9838097346
asS'2000-01-01 00:25:30.003453'
p2960
(lp2961
F1.4830877418
aF0.00902201690055
asS'2000-01-01 00:25:30.755675'
p2962
(lp2963
F300.500937965
aF1.82802707118
asS'2000-01-01 00:25:28.941281'
p2964
(lp2965
F420.356595683
aF2.55714089168
asS'2000-01-01 00:25:56.011050'
p2966
(lp2967
F1541.50552759
aF9.37738781746
asS'2000-01-01 00:26:30.214787'
p2968
(lp2969
F85.5523820532
aF0.520437877687
asS'2000-01-01 00:26:00.391883'
p2970
(lp2971
F155.981324911
aF0.948875855321
asS'2000-01-01 00:26:17.119111'
p2972
(lp2973
F3706.79917277
aF22.5494445413
asS'2000-01-01 00:25:42.994039'
p2974
(lp2975
F3716.48398118
aF22.6083598049
asS'2000-01-01 00:25:51.638558'
p2976
(lp2977
F2918.0930842
aF17.7515357864
asS'2000-01-01 00:25:52.919610'
p2978
(lp2979
F2566.31719672
aF15.6115895698
asS'2000-01-01 00:26:01.030941'
p2980
(lp2981
F409.533413995
aF2.49130060094
asS'2000-01-01 00:25:37.679631'
p2982
(lp2983
F2737.12847562
aF16.6506799766
asS'2000-01-01 00:25:28.304363'
p2984
(lp2985
F671.129375232
aF4.08265835873
asS'2000-01-01 00:26:02.413444'
p2986
(lp2987
F950.312967719
aF5.78100635176
asS'2000-01-01 00:25:36.504486'
p2988
(lp2989
F2392.86975021
aF14.5564626547
asS'2000-01-01 00:25:33.945009'
p2990
(lp2991
F1525.66073488
aF9.28099973228
asS'2000-01-01 00:26:19.882730'
p2992
(lp2993
F3313.9410045
aF20.159583892
asS'2000-01-01 00:25:43.099523'
p2994
(lp2995
F3725.00922645
aF22.6602211376
asS'2000-01-01 00:26:27.983672'
p2996
(lp2997
F796.342129867
aF4.84436082355
asS'2000-01-01 00:25:20.530980'
p2998
(lp2999
F3180.17046673
aF19.3458221579
asS'2000-01-01 00:25:57.606702'
p3000
(lp3001
F942.358765564
aF5.73261882602
asS'2000-01-01 00:25:36.080053'
p3002
(lp3003
F2259.34337831
aF13.7441862465
asS'2000-01-01 00:26:19.457743'
p3004
(lp3005
F3393.38721132
aF20.6428762828
asS'2000-01-01 00:25:56.649001'
p3006
(lp3007
F1306.19493817
aF7.94593096245
asS'2000-01-01 00:26:14.556490'
p3008
(lp3009
F3795.90605409
aF23.0915053827
asS'2000-01-01 00:25:19.911156'
p3010
(lp3011
F3308.41056309
aF20.125940747
asS'2000-01-01 00:26:11.148161'
p3012
(lp3013
F3495.0665269
aF21.2614185833
asS'2000-01-01 00:25:40.548710'
p3014
(lp3015
F3394.63352763
aF20.6504579562
asS'2000-01-01 00:25:47.266330'
p3016
(lp3017
F3693.46337066
aF22.4683193128
asS'2000-01-01 00:26:06.560442'
p3018
(lp3019
F2410.12535709
aF14.6614330975
asS'2000-01-01 00:25:37.998945'
p3020
(lp3021
F2823.72451365
aF17.177466691
asS'2000-01-01 00:26:02.841496'
p3022
(lp3023
F1114.19748863
aF6.77795944879
asS'2000-01-01 00:26:24.889448'
p3024
(lp3025
F1937.89993616
aF11.7887603564
asS'2000-01-01 00:26:09.225286'
p3026
(lp3027
F3126.15388295
aF19.0172249225
asS'2000-01-01 00:26:30.320931'
p3028
(lp3029
F127.778331326
aF0.777309549699
asS'2000-01-01 00:26:23.188237'
p3030
(lp3031
F2486.46251036
aF15.1258122893
asS'2000-01-01 00:26:11.255588'
p3032
(lp3033
F3511.62527275
aF21.3621498352
asS'2000-01-01 00:26:07.950860'
p3034
(lp3035
F2810.88309641
aF17.099348937
asS'2000-01-01 00:26:14.132155'
p3036
(lp3037
F3784.32559029
aF23.0210583437
asS'2000-01-01 00:25:42.036829'
p3038
(lp3039
F3618.54159951
aF22.0125502665
asS'2000-01-01 00:25:45.874034'
p3040
(lp3041
F3784.08631482
aF23.0196027674
asS'2000-01-01 00:25:50.561137'
p3042
(lp3043
F3173.58713267
aF19.3057739872
asS'2000-01-01 00:26:07.845142'
p3044
(lp3045
F2782.42502565
aF16.9262309291
asS'2000-01-01 00:26:21.484037'
p3046
(lp3047
F2957.09513727
aF17.988795641
asS'2000-01-01 00:25:48.859664'
p3048
(lp3049
F3493.77871114
aF21.2535844578
asS'2000-01-01 00:26:22.762492'
p3050
(lp3051
F2612.07341919
aF15.8899368319
asS'2000-01-01 00:25:44.375013'
p3052
(lp3053
F3791.86968426
aF23.0669510723
asS'2000-01-01 00:25:35.867757'
p3054
(lp3055
F2190.86724233
aF13.3276277121
asS'2000-01-01 00:26:19.563762'
p3056
(lp3057
F3374.19271958
aF20.5261110882
asS'2000-01-01 00:26:17.437241'
p3058
(lp3059
F3676.88106648
aF22.3674447493
asS'2000-01-01 00:25:41.825252'
p3060
(lp3061
F3591.94920715
aF21.8507816763
asS'2000-01-01 00:25:52.488876'
p3062
(lp3063
F2690.0739078
aF16.3644345347
asS'2000-01-01 00:25:51.958339'
p3064
(lp3065
F2834.96194566
aF17.2458269766
asS'2000-01-01 00:26:05.817340'
p3066
(lp3067
F2174.44196006
aF13.2277083546
asS'2000-01-01 00:26:05.391777'
p3068
(lp3069
F2033.45050675
aF12.3700198722
asS'2000-01-01 00:25:41.505711'
p3070
(lp3071
F3548.44902812
aF21.5861585259
asS'2000-01-01 00:26:18.393634'
p3072
(lp3073
F3562.52499224
aF21.6717863567
asS'2000-01-01 00:26:16.371745'
p3074
(lp3075
F3760.84894838
aF22.8782436914
asS'2000-01-01 00:26:04.966632'
p3076
(lp3077
F1888.55745821
aF11.488596949
asS'2000-01-01 00:25:55.158949'
p3078
(lp3079
F1844.88687357
aF11.2229371762
asS'2000-01-01 00:25:40.229501'
p3080
(lp3081
F3335.64447438
aF20.2916118675
asS'2000-01-01 00:25:30.862321'
p3082
(lp3083
F342.767207199
aF2.08514402024
asS'2000-01-01 00:26:21.696997'
p3084
(lp3085
F2903.1418986
aF17.6605837508
asS'2000-01-01 00:26:29.151983'
p3086
(lp3087
F336.928696898
aF2.04962681035
asS'2000-01-01 00:25:35.760576'
p3088
(lp3089
F2155.88448294
aF13.1148182893
asS'2000-01-01 00:26:26.921435'
p3090
(lp3091
F1203.85471685
aF7.32336819669
asS'2000-01-01 00:26:01.349508'
p3092
(lp3093
F535.311600471
aF3.25644273793
asS'2000-01-01 00:25:43.630701'
p3094
(lp3095
F3761.01201729
aF22.879235683
asS'2000-01-01 00:25:27.454756'
p3096
(lp3097
F1000.80981213
aF6.08819207712
asS'2000-01-01 00:26:01.242122'
p3098
(lp3099
F492.973302739
aF2.99888762039
asS'2000-01-01 00:26:22.441232'
p3100
(lp3101
F2703.43430961
aF16.4457094097
asS'2000-01-01 00:26:24.672405'
p3102
(lp3103
F2011.68747611
aF12.2376295728
asS'2000-01-01 00:25:24.259533'
p3104
(lp3105
F2149.1476974
aF13.0738366323
asS'2000-01-01 00:25:41.718595'
p3106
(lp3107
F3577.87468714
aF21.7651626303
asS'2000-01-01 00:26:20.847414'
p3108
(lp3109
F3109.51226117
aF18.9159895143
asS'2000-01-01 00:26:06.242204'
p3110
(lp3111
F2310.89777597
aF14.0578053493
asS'2000-01-01 00:26:24.355323'
p3112
(lp3113
F2117.60355712
aF12.8819452433
asS'2000-01-01 00:26:13.494417'
p3114
(lp3115
F3752.88062677
aF22.8297702733
asS'2000-01-01 00:26:28.406820'
p3116
(lp3117
F630.960003741
aF3.83829739595
asS'2000-01-01 00:26:27.027066'
p3118
(lp3119
F1163.93925005
aF7.08055180363
asS'2000-01-01 00:26:31.386170'
p3120
(lp3121
F549.791779264
aF3.34452951399
asS'2000-01-01 00:26:26.062408'
p3122
(lp3123
F1522.80145203
aF9.26360595474
asS'2000-01-01 00:26:31.491937'
p3124
(lp3125
F591.36466562
aF3.59742843072
asS'2000-01-01 00:26:31.279921'
p3126
(lp3127
F507.883463302
aF3.08959008983
asS'2000-01-01 00:26:05.710634'
p3128
(lp3129
F2139.48382917
aF13.0150487534
asS'2000-01-01 00:25:46.406217'
p3130
(lp3131
F3758.86034513
aF22.8661464894
asS'2000-01-01 00:26:22.868837'
p3132
(lp3133
F2581.1827656
aF15.7020207762
asS'2000-01-01 00:25:45.659867'
p3134
(lp3135
F3790.92554625
aF23.0612076299
asS'2000-01-01 00:26:19.243931'
p3136
(lp3137
F3430.82562506
aF20.8706241038
asS'2000-01-01 00:26:18.925159'
p3138
(lp3139
F3483.4327854
aF21.1906474418
asS'2000-01-01 00:25:53.130840'
p3140
(lp3141
F2503.70442986
aF15.2306994681
asS'2000-01-01 00:25:32.246065'
p3142
(lp3143
F885.650943279
aF5.38765007156
asS'2000-01-01 00:25:25.326808'
p3144
(lp3145
F1786.21046945
aF10.8659930151
asS'2000-01-01 00:26:30.534870'
p3146
(lp3147
F212.817663371
aF1.29462640783
asS'2000-01-01 00:25:28.091715'
p3148
(lp3149
F754.251450797
aF4.58831203614
asS'2000-01-01 00:26:08.163416'
p3150
(lp3151
F2867.10164605
aF17.441341316
asS'2000-01-01 00:26:25.315794'
p3152
(lp3153
F1790.01807601
aF10.8891556978
asS'2000-01-01 00:26:29.258026'
p3154
(lp3155
F294.87198798
aF1.79378467239
asS'2000-01-01 00:26:19.136558'
p3156
(lp3157
F3448.9817381
aF20.9810725649
asS'2000-01-01 00:26:31.704788'
p3158
(lp3159
F674.877786571
aF4.10546094114
asS'2000-01-01 00:26:16.690181'
p3160
(lp3161
F3740.61672041
aF22.7551656715
asS'2000-01-01 00:25:31.821043'
p3162
(lp3163
F720.355505995
aF4.38211399522
asS'2000-01-01 00:26:21.272042'
p3164
(lp3165
F3009.34547833
aF18.3066483525
asS'2000-01-01 00:25:53.980176'
p3166
(lp3167
F2239.8949969
aF13.6258765735
asS'2000-01-01 00:25:25.432931'
p3168
(lp3169
F1748.82393348
aF10.6385607805
asS'2000-01-01 00:25:45.766509'
p3170
(lp3171
F3787.75781352
aF23.0419374697
asS'2000-01-01 00:25:56.222343'
p3172
(lp3173
F1464.28248776
aF8.90761954225
asS'2000-01-01 00:25:45.021358'
p3174
(lp3175
F3799.99030939
aF23.1163509932
asS'2000-01-01 00:26:05.604869'
p3176
(lp3177
F2104.59552363
aF12.8028139184
asS'2000-01-01 00:25:57.075871'
p3178
(lp3179
F1145.43484985
aF6.9679846192
asS'2000-01-01 00:26:05.497757'
p3180
(lp3181
F2068.95179109
aF12.5859836202
asS'2000-01-01 00:25:48.222576'
p3182
(lp3183
F3585.63856995
aF21.812392393
asS'2000-01-01 00:26:04.329025'
p3184
(lp3185
F1664.34224027
aF10.1246361876
asS'2000-01-01 00:26:22.546793'
p3186
(lp3187
F2673.74858396
aF16.2651232509
asS'2000-01-01 00:25:33.308519'
p3188
(lp3189
F1290.46992452
aF7.85027152507
asS'2000-01-01 00:26:04.434861'
p3190
(lp3191
F1702.10457236
aF10.35435449
asS'2000-01-01 00:25:39.273457'
p3192
(lp3193
F3137.00493139
aF19.0832347341
asS'2000-01-01 00:25:22.983692'
p3194
(lp3195
F2547.45441224
aF15.4968422385
asS'2000-01-01 00:25:32.140265'
p3196
(lp3197
F844.657677349
aF5.13827713994
asS'2000-01-01 00:25:49.923518'
p3198
(lp3199
F3305.96724305
aF20.1110773819
asS'2000-01-01 00:26:26.593669'
p3200
(lp3201
F1326.85686347
aF8.07162294544
asS'2000-01-01 00:25:29.897697'
p3202
(lp3203
F40.627975429
aF0.247150772422
asS'2000-01-01 00:25:34.587633'
p3204
(lp3205
F1756.24021541
aF10.6836759945
asS'2000-01-01 00:26:09.650287'
p3206
(lp3207
F3219.16881355
aF19.5830594664
asS'2000-01-01 00:25:32.779308'
p3208
(lp3209
F1090.51717231
aF6.63390579102
asS'2000-01-01 00:26:16.583794'
p3210
(lp3211
F3747.84056752
aF22.7991102533
asS'2000-01-01 00:25:46.192381'
p3212
(lp3213
F3770.40365589
aF22.9363675166
asS'2000-01-01 00:25:36.833308'
p3214
(lp3215
F2493.07766602
aF15.1660540393
asS'2000-01-01 00:25:23.303341'
p3216
(lp3217
F2451.65823883
aF14.9140886555
asS'2000-01-01 00:25:27.880573'
p3218
(lp3219
F836.404812771
aF5.08807277131
asS'2000-01-01 00:26:20.412748'
p3220
(lp3221
F3205.67976514
aF19.5010019998
asS'2000-01-01 00:26:26.382256'
p3222
(lp3223
F1405.31178362
aF8.54888507602
asS'2000-01-01 00:25:32.352141'
p3224
(lp3225
F926.640906358
aF5.63700291106
asS'2000-01-01 00:25:35.012735'
p3226
(lp3227
F1904.45767827
aF11.5853222136
asS'2000-01-01 00:26:01.562164'
p3228
(lp3229
F618.955292841
aF3.765269549
asS'2000-01-01 00:25:58.781136'
p3230
(lp3231
F483.629512685
aF2.94204686214
asS'2000-01-01 00:25:46.085762'
p3232
(lp3233
F3775.45413034
aF22.967090895
asS'2000-01-01 00:25:52.064343'
p3234
(lp3235
F2806.69871992
aF17.0738942627
asS'2000-01-01 00:26:28.833035'
p3236
(lp3237
F463.138802198
aF2.81739642434
asS'2000-01-01 00:26:18.074065'
p3238
(lp3239
F3604.77203161
aF21.9287863254
asS'2000-01-01 00:26:15.841053'
p3240
(lp3241
F3785.26324674
aF23.026762357
asS'2000-01-01 00:25:32.567387'
p3242
(lp3243
F1009.47593609
aF6.14091041237
asS'2000-01-01 00:26:27.345419'
p3244
(lp3245
F1042.71584289
aF6.34311759978
asS'2000-01-01 00:25:59.630605'
p3246
(lp3247
F146.877043242
aF0.893492090241
asS'2000-01-01 00:26:02.735390'
p3248
(lp3249
F1073.76315569
aF6.53198665513
asS'2000-01-01 00:26:16.802472'
p3250
(lp3251
F3732.49104359
aF22.7057350198
asS'2000-01-01 00:25:23.728259'
p3252
(lp3253
F2320.08336577
aF14.1136837334
asS'2000-01-01 00:25:37.044810'
p3254
(lp3255
F2555.98265324
aF15.5487217951
asS'2000-01-01 00:25:39.591711'
p3256
(lp3257
F3206.72084773
aF19.5073351819
asS'2000-01-01 00:25:41.612976'
p3258
(lp3259
F3563.49704984
aF21.6776996415
asS'2000-01-01 00:25:42.143837'
p3260
(lp3261
F3631.31561175
aF22.090257978
asS'2000-01-01 00:26:22.974487'
p3262
(lp3263
F2550.16977858
aF15.5133605337
asS'2000-01-01 00:25:33.202812'
p3264
(lp3265
F1250.82734225
aF7.60911516113
asS'2000-01-01 00:26:15.414207'
p3266
(lp3267
F3796.42213372
aF23.0946448323
asS'2000-01-01 00:26:17.968275'
p3268
(lp3269
F3617.86166836
aF22.0084140646
asS'2000-01-01 00:26:15.200446'
p3270
(lp3271
F3799.16095439
aF23.1113058063
asS'2000-01-01 00:26:18.499555'
p3272
(lp3273
F3547.6290123
aF21.5811701518
asS'2000-01-01 00:26:09.439126'
p3274
(lp3275
F3173.73615861
aF19.3066805515
asS'2000-01-01 00:26:26.275108'
p3276
(lp3277
F1444.88317476
aF8.78960836541
asS'2000-01-01 00:26:07.314157'
p3278
(lp3279
F2634.26749778
aF16.0249493106
asS'2000-01-01 00:25:25.220125'
p3280
(lp3281
F1823.51321255
aF11.0929155156
asS'2000-01-01 00:25:59.313230'
p3282
(lp3283
F272.970578668
aF1.6605525787
asS'2000-01-01 00:26:10.075833'
p3284
(lp3285
F3305.92212299
aF20.1108029046
asS'2000-01-01 00:25:34.050611'
p3286
(lp3287
F1564.05013566
aF9.51453266014
asS'2000-01-01 00:25:29.471693'
p3288
(lp3289
F210.041986682
aF1.27774122883
asS'2000-01-01 00:26:28.089539'
p3290
(lp3291
F755.095059888
aF4.59344393444
asS'2000-01-01 00:26:16.908059'
p3292
(lp3293
F3724.37882695
aF22.6563862499
asS'2000-01-01 00:25:52.813777'
p3294
(lp3295
F2597.21855226
aF15.7995707283
asS'2000-01-01 00:26:13.282845'
p3296
(lp3297
F3738.7432671
aF22.7437689571
asS'2000-01-01 00:25:44.481705'
p3298
(lp3299
F3794.40869553
aF23.0823965527
asS'2000-01-01 00:25:31.181450'
p3300
(lp3301
F469.041001205
aF2.85330106955
asS'2000-01-01 00:26:24.249688'
p3302
(lp3303
F2152.38009718
aF13.0935001793
asS'2000-01-01 00:25:37.574146'
p3304
(lp3305
F2707.84604047
aF16.4725471411
asS'2000-01-01 00:25:48.965519'
p3306
(lp3307
F3476.9972964
aF21.1514986518
asS'2000-01-01 00:26:02.948753'
p3308
(lp3309
F1154.96017654
aF7.02592971308
asS'2000-01-01 00:26:18.711016'
p3310
(lp3311
F3516.6009988
aF21.3924184992
asS'2000-01-01 00:25:45.980136'
p3312
(lp3313
F3779.99263503
aF22.9946998252
asS'2000-01-01 00:26:28.939136'
p3314
(lp3315
F421.201731896
aF2.56228207988
asS'2000-01-01 00:26:22.653997'
p3316
(lp3317
F2643.26757991
aF16.0796992022
asS'2000-01-01 00:26:07.738537'
p3318
(lp3319
F2753.34925563
aF16.7493552925
asS'2000-01-01 00:26:17.754645'
p3320
(lp3321
F3642.96229798
aF22.1611078657
asS'2000-01-01 00:25:58.675212'
p3322
(lp3323
F525.374686262
aF3.19599384782
asS'2000-01-01 00:25:31.608074'
p3324
(lp3325
F636.969737396
aF3.874856203
asS'2000-01-01 00:26:27.132776'
p3326
(lp3327
F1123.82377637
aF6.83651871554
asS'2000-01-01 00:25:52.595675'
p3328
(lp3329
F2659.86284379
aF16.180652603
asS'2000-01-01 00:26:00.071961'
p3330
(lp3331
F28.727436451
aF0.174756630957
asS'2000-01-01 00:26:31.597502'
p3332
(lp3333
F632.823509839
aF3.84963359882
asS'2000-01-01 00:25:21.913304'
p3334
(lp3335
F2846.86315629
aF17.3182252038
asS'2000-01-01 00:25:24.153988'
p3336
(lp3337
F2183.65298541
aF13.2837414699
asS'2000-01-01 00:25:57.712576'
p3338
(lp3339
F901.485951775
aF5.48397863678
asS'2000-01-01 00:26:16.158816'
p3340
(lp3341
F3772.04504888
aF22.9463525464
asS'2000-01-01 00:25:20.956088'
p3342
(lp3343
F3084.45357184
aF18.7635508471
asS'2000-01-01 00:25:53.025341'
p3344
(lp3345
F2535.13296119
aF15.4218875771
asS'2000-01-01 00:26:07.207953'
p3346
(lp3347
F2603.650042
aF15.8386951897
asS'2000-01-01 00:26:30.427292'
p3348
(lp3349
F170.153454939
aF1.03508868887
asS'2000-01-01 00:25:26.177431'
p3350
(lp3351
F1480.74895334
aF9.00778942873
asS'2000-01-01 00:25:42.782897'
p3352
(lp3353
F3698.05890151
aF22.4962751483
asS'2000-01-01 00:25:54.086670'
p3354
(lp3355
F2205.52371587
aF13.416786936
asS'2000-01-01 00:26:02.093640'
p3356
(lp3357
F826.552688036
aF5.0281396781
asS'2000-01-01 00:26:28.300661'
p3358
(lp3359
F672.584009215
aF4.09150728385
asS'2000-01-01 00:25:49.285117'
p3360
(lp3361
F3423.74822045
aF20.8275703706
asS'2000-01-01 00:25:37.468478'
p3362
(lp3363
F2678.17813328
aF16.2920693767
asS'2000-01-01 00:26:06.454833'
p3364
(lp3365
F2377.48853608
aF14.4628946413
asS'2000-01-01 00:25:54.838455'
p3366
(lp3367
F1955.32543625
aF11.8947643047
asS'2000-01-01 00:25:59.206553'
p3368
(lp3369
F315.257043544
aF1.91779238322
asS'2000-01-01 00:26:10.395419'
p3370
(lp3371
F3366.76629024
aF20.4809341448
asS'2000-01-01 00:25:42.568473'
p3372
(lp3373
F3677.50743983
aF22.3712551448
asS'2000-01-01 00:25:23.941116'
p3374
(lp3375
F2252.431607
aF13.7021401047
asS'2000-01-01 00:26:19.669611'
p3376
(lp3377
F3354.61099649
aF20.4069902623
asS'2000-01-01 00:25:39.804096'
p3378
(lp3379
F3251.28737083
aF19.7784451866
asS'2000-01-01 00:25:25.751806'
p3380
(lp3381
F1635.21587873
aF9.94745278931
asS'2000-01-01 00:26:19.350402'
p3382
(lp3383
F3412.39781983
aF20.758522867
asS'2000-01-01 00:26:08.802102'
p3384
(lp3385
F3027.38811426
aF18.4164065021
asS'2000-01-01 00:26:08.057585'
p3386
(lp3387
F2839.28814488
aF17.2721443962
asS'2000-01-01 00:25:26.284792'
p3388
(lp3389
F1441.3186769
aF8.76792457758
asS'2000-01-01 00:26:06.029226'
p3390
(lp3391
F2243.04758524
aF13.6450546063
asS'2000-01-01 00:25:35.119078'
p3392
(lp3393
F1940.9599334
aF11.8073751329
asS'2000-01-01 00:25:57.287018'
p3394
(lp3395
F1065.04433179
aF6.47894773207
asS'2000-01-01 00:25:30.214975'
p3396
(lp3397
F85.6248008266
aF0.520878420332
asS'2000-01-01 00:25:45.341171'
p3398
(lp3399
F3797.57075061
aF23.1016321741
asS'2000-01-01 00:25:44.915685'
p3400
(lp3401
F3799.85259795
aF23.1155132579
asS'2000-01-01 00:25:25.646174'
p3402
(lp3403
F1673.05913811
aF10.1776633939
asS'2000-01-01 00:25:24.364980'
p3404
(lp3405
F2114.41128964
aF12.8625258319
asS'2000-01-01 00:25:53.449110'
p3406
(lp3407
F2407.05639019
aF14.6427637562
asS'2000-01-01 00:25:56.327982'
p3408
(lp3409
F1425.40143945
aF8.67109579181
asS'2000-01-01 00:25:38.210901'
p3410
(lp3411
F2879.4693738
aF17.5165774909
asS'2000-01-01 00:26:01.456100'
p3412
(lp3413
F577.273833538
aF3.51171015418
asS'2000-01-01 00:25:40.441280'
p3414
(lp3415
F3375.19205963
aF20.5321903393
asS'2000-01-01 00:26:25.956984'
p3416
(lp3417
F1561.14644199
aF9.49686871984
asS'2000-01-01 00:25:58.993111'
p3418
(lp3419
F399.852891353
aF2.43241140888
asS'2000-01-01 00:26:22.015479'
p3420
(lp3421
F2819.77034045
aF17.1534124045
asS'2000-01-01 00:26:14.774585'
p3422
(lp3423
F3798.94334051
aF23.1099820033
asS'2000-01-01 00:26:15.091637'
p3424
(lp3425
F3799.82423683
aF23.1153407297
asS'2000-01-01 00:26:21.165900'
p3426
(lp3427
F3034.94800774
aF18.4623953434
asS'2000-01-01 00:25:25.112994'
p3428
(lp3429
F1860.85516306
aF11.3200765251
asS'2000-01-01 00:26:25.638012'
p3430
(lp3431
F1675.97831518
aF10.1954215239
asS'2000-01-01 00:26:30.108674'
p3432
(lp3433
F43.3266281889
aF0.263567394393
asS'2000-01-01 00:26:24.037034'
p3434
(lp3435
F2221.57647384
aF13.5144401291
asS'2000-01-01 00:25:54.625907'
p3436
(lp3437
F2027.32925774
aF12.3327826876
asS'2000-01-01 00:26:20.626645'
p3438
(lp3439
F3159.17435862
aF19.2180972521
asS'2000-01-01 00:25:25.538985'
p3440
(lp3441
F1711.25407689
aF10.4100133577
asS'2000-01-01 00:25:39.909992'
p3442
(lp3443
F3272.88258156
aF19.9098145929
asS'2000-01-01 00:26:03.585633'
p3444
(lp3445
F1393.63304448
aF8.47784020197
asS'2000-01-01 00:26:22.122756'
p3446
(lp3447
F2790.97272308
aF16.9782288444
asS'2000-01-01 00:26:07.419787'
p3448
(lp3449
F2664.39858436
aF16.2082447183
asS'2000-01-01 00:25:53.767022'
p3450
(lp3451
F2307.82227928
aF14.0390962856
asS'2000-01-01 00:25:41.187239'
p3452
(lp3453
F3501.14135995
aF21.2983734073
asS'2000-01-01 00:25:30.109134'
p3454
(lp3455
F43.5136622648
aF0.264705172387
asS'2000-01-01 00:26:20.740039'
p3456
(lp3457
F3133.86916196
aF19.0641590153
asS'2000-01-01 00:26:23.505806'
p3458
(lp3459
F2389.55779082
aF14.5363151255
asS'2000-01-01 00:25:29.364957'
p3460
(lp3461
F252.438255693
aF1.53564900108
asS'2000-01-01 00:25:54.299772'
p3462
(lp3463
F2135.92112811
aF12.993375896
asS'2000-01-01 00:26:09.119408'
p3464
(lp3465
F3102.0009003
aF18.8702959098
asS'2000-01-01 00:25:27.348392'
p3466
(lp3467
F1041.5812138
aF6.33621534946
asS'2000-01-01 00:25:55.052044'
p3468
(lp3469
F1881.96617589
aF11.4485004269
asS'2000-01-01 00:26:03.372737'
p3470
(lp3471
F1314.47719997
aF7.99631416219
asS'2000-01-01 00:25:59.098926'
p3472
(lp3473
F357.955061861
aF2.17753577669
asS'2000-01-01 00:26:23.931288'
p3474
(lp3475
F2255.57765132
aF13.7212783284
asS'2000-01-01 00:26:03.691405'
p3476
(lp3477
F1432.70364252
aF8.71551703379
asS'2000-01-01 00:26:23.400419'
p3478
(lp3479
F2422.01890348
aF14.7337847011
asS'2000-01-01 00:26:05.073905'
p3480
(lp3481
F1925.48483584
aF11.7132360015
asS'2000-01-01 00:25:28.197179'
p3482
(lp3483
F713.071527966
aF4.33780362097
asS'2000-01-01 00:25:34.800838'
p3484
(lp3485
F1831.02974857
aF11.1386406019
asS'2000-01-01 00:25:43.844745'
p3486
(lp3487
F3772.2361867
aF22.9475152886
asS'2000-01-01 00:26:14.986093'
p3488
(lp3489
F3799.99609163
aF23.1163861681
asS'2000-01-01 00:25:33.097332'
p3490
(lp3491
F1211.11678893
aF7.36754531125
asS'2000-01-01 00:26:04.116748'
p3492
(lp3493
F1588.07360614
aF9.66067381591
asS'2000-01-01 00:25:20.423729'
p3494
(lp3495
F3203.32972749
aF19.4867060962
asS'2000-01-01 00:25:45.554023'
p3496
(lp3497
F3793.60165801
aF23.0774871289
asS'2000-01-01 00:25:21.805750'
p3498
(lp3499
F2875.02965105
aF17.4895694774
asS'2000-01-01 00:25:50.136355'
p3500
(lp3501
F3263.38792299
aF19.8520560614
asS'2000-01-01 00:25:20.850195'
p3502
(lp3503
F3108.87715871
aF18.9121260173
asS'2000-01-01 00:25:43.313280'
p3504
(lp3505
F3740.88984686
aF22.7568271722
asS'2000-01-01 00:25:55.265347'
p3506
(lp3507
F1807.75972797
aF10.997082882
asS'2000-01-01 00:25:21.592708'
p3508
(lp3509
F2929.7474213
aF17.8224322165
asS'2000-01-01 00:25:42.676777'
p3510
(lp3511
F3688.1149474
aF22.4357834326
asS'2000-01-01 00:25:20.210713'
p3512
(lp3513
F3248.12852115
aF19.7592290645
asS'2000-01-01 00:26:12.105121'
p3514
(lp3515
F3626.74742751
aF22.0624684992
asS'2000-01-01 00:25:46.512338'
p3516
(lp3517
F3752.43114653
aF22.8270359655
asS'2000-01-01 00:25:26.604524'
p3518
(lp3519
F1322.80645116
aF8.04698321085
asS'2000-01-01 00:25:24.579125'
p3520
(lp3521
F2043.08056209
aF12.4286020583
asS'2000-01-01 00:25:32.990236'
p3522
(lp3523
F1170.64705765
aF7.12135718004
asS'2000-01-01 00:25:55.371846'
p3524
(lp3525
F1770.36977326
aF10.7696298502
asS'2000-01-01 00:25:35.973961'
p3526
(lp3527
F2225.25921373
aF13.5368432147
asS'2000-01-01 00:25:34.370414'
p3528
(lp3529
F1679.13291767
aF10.2146118092
asS'2000-01-01 00:25:47.904552'
p3530
(lp3531
F3625.54684624
aF22.0551650442
asS'2000-01-01 00:25:24.685100'
p3532
(lp3533
F2007.37451726
aF12.2113926978
asS'2000-01-01 00:26:08.694313'
p3534
(lp3535
F3001.25761074
aF18.2574477044
asS'2000-01-01 00:25:37.785334'
p3536
(lp3537
F2766.14191015
aF16.8271764099
asS'2000-01-01 00:25:49.072924'
p3538
(lp3539
F3459.5339697
aF21.0452645942
asS'2000-01-01 00:25:52.706087'
p3540
(lp3541
F2628.33461872
aF15.9888580304
asS'2000-01-01 00:25:29.683530'
p3542
(lp3543
F125.830302507
aF0.765459172657
asS'2000-01-01 00:26:28.514107'
p3544
(lp3545
F588.823193172
aF3.58196797836
asS'2000-01-01 00:25:59.419242'
p3546
(lp3547
F230.877718846
aF1.40449052519
asS'2000-01-01 00:26:01.136632'
p3548
(lp3549
F451.321077054
aF2.74550606144
asS'2000-01-01 00:25:41.399908'
p3550
(lp3551
F3533.17964805
aF21.4932708288
asS'2000-01-01 00:26:11.042689'
p3552
(lp3553
F3478.38094331
aF21.1599157437
asS'2000-01-01 00:26:27.452813'
p3554
(lp3555
F1001.55682258
aF6.09273634019
asS'2000-01-01 00:25:44.809846'
p3556
(lp3557
F3799.24828681
aF23.1118370727
asS'2000-01-01 00:25:51.001108'
p3558
(lp3559
F3073.95602284
aF18.6996914666
asS'2000-01-01 00:26:13.388645'
p3560
(lp3561
F3746.0426354
aF22.7881729544
asS'2000-01-01 00:25:50.455043'
p3562
(lp3563
F3196.61032153
aF19.4458301639
asS'2000-01-01 00:25:38.848173'
p3564
(lp3565
F3038.41410316
aF18.4834805231
asS'2000-01-01 00:25:45.447192'
p3566
(lp3567
F3795.83004691
aF23.0910430109
asS'2000-01-01 00:25:31.075846'
p3568
(lp3569
F427.293195603
aF2.59933807256
asS'2000-01-01 00:25:36.725902'
p3570
(lp3571
F2460.66474199
aF14.9688776079
asS'2000-01-01 00:26:20.306914'
p3572
(lp3573
F3228.09809512
aF19.6373786594
asS'2000-01-01 00:26:27.239321'
p3574
(lp3575
F1083.25134365
aF6.58970582418
asS'2000-01-01 00:26:02.628006'
p3576
(lp3577
F1032.73942919
aF6.28242842373
asS'2000-01-01 00:26:15.734072'
p3578
(lp3579
F3788.77153918
aF23.0481042323
asS'2000-01-01 00:25:33.519447'
p3580
(lp3581
F1369.09537477
aF8.32857103562
asS'2000-01-01 00:25:51.533055'
p3582
(lp3583
F2944.80774372
aF17.9140481604
asS'2000-01-01 00:26:24.783315'
p3584
(lp3585
F1974.10575536
aF12.0090099772
asS'2000-01-01 00:25:54.407016'
p3586
(lp3587
F2100.49256529
aF12.7778545324
asS'2000-01-01 00:25:36.292656'
p3588
(lp3589
F2326.80300511
aF14.1545610854
asS'2000-01-01 00:26:30.642139'
p3590
(lp3591
F255.451427002
aF1.55397892297
asS'2000-01-01 00:25:38.954972'
p3592
(lp3593
F3063.74662273
aF18.6375849723
asS'2000-01-01 00:25:27.665907'
p3594
(lp3595
F919.517387489
aF5.59366865253
asS'2000-01-01 00:25:47.054216'
p3596
(lp3597
F3712.39172218
aF22.5834655057
asS'2000-01-01 00:26:17.224560'
p3598
(lp3599
F3697.33684508
aF22.4918826871
asS'2000-01-01 00:26:12.317176'
p3600
(lp3601
F3651.04026484
aF22.2102482851
asS'2000-01-01 00:26:17.331697'
p3602
(lp3603
F3687.26150914
aF22.4305917409
asS'2000-01-01 00:25:46.735039'
p3604
(lp3605
F3737.43376194
aF22.7358028892
asS'2000-01-01 00:25:28.409862'
p3606
(lp3607
F629.770988626
aF3.83106430099
asS'2000-01-01 00:25:50.242809'
p3608
(lp3609
F3241.4826359
aF19.7188003782
asS'2000-01-01 00:25:46.628617'
p3610
(lp3611
F3744.8538732
aF22.780941398
asS'2000-01-01 00:26:08.482262'
p3612
(lp3613
F2948.75892664
aF17.9380842562
asS'2000-01-01 00:25:42.251250'
p3614
(lp3615
F3643.68030379
aF22.1654756859
asS'2000-01-01 00:25:34.157575'
p3616
(lp3617
F1602.77258791
aF9.75009162865
asS'2000-01-01 00:25:27.986270'
p3618
(lp3619
F795.328883684
aF4.83819697773
asS'2000-01-01 00:25:54.193486'
p3620
(lp3621
F2170.76936268
aF13.2053669687
asS'2000-01-01 00:25:58.350372'
p3622
(lp3623
F653.102802736
aF3.97299792723
asS'2000-01-01 00:25:30.543874'
p3624
(lp3625
F216.403712557
aF1.31644129811
asS'2000-01-01 00:25:33.626640'
p3626
(lp3627
F1408.8009089
aF8.57011035244
asS'2000-01-01 00:25:58.456366'
p3628
(lp3629
F611.513499082
aF3.71999913972
asS'2000-01-01 00:25:58.244167'
p3630
(lp3631
F694.694197444
aF4.22600943518
asS'2000-01-01 00:26:03.798210'
p3632
(lp3633
F1472.0093201
aF8.95462391697
asS'2000-01-01 00:26:14.344270'
p3634
(lp3635
F3791.05014337
aF23.0619655872
asS'2000-01-01 00:26:30.748020'
p3636
(lp3637
F297.484845296
aF1.80967937787
asS'2000-01-01 00:25:33.414006'
p3638
(lp3639
F1329.87230561
aF8.0899666814
asS'2000-01-01 00:26:06.136416'
p3640
(lp3641
F2277.33616867
aF13.8536411723
asS'2000-01-01 00:25:40.122863'
p3642
(lp3643
F3315.1089115
aF20.1666885807
asS'2000-01-01 00:26:29.683276'
p3644
(lp3645
F125.930151172
aF0.766066578623
asS'2000-01-01 00:25:24.899479'
p3646
(lp3647
F1934.46183401
aF11.7678454672
asS'2000-01-01 00:25:28.728391'
p3648
(lp3649
F504.44202381
aF3.06865489875
asS'2000-01-01 00:26:10.607249'
p3650
(lp3651
F3405.02464904
aF20.7136699094
asS'2000-01-01 00:25:27.242229'
p3652
(lp3653
F1082.14207058
aF6.58295782127
asS'2000-01-01 00:25:29.578042'
p3654
(lp3655
F167.775345277
aF1.02062201576
asS'2000-01-01 00:25:36.185469'
p3656
(lp3657
F2292.93445181
aF13.9485296743
asS'2000-01-01 00:25:23.622731'
p3658
(lp3659
F2353.19946425
aF14.3151377618
asS'2000-01-01 00:25:27.774371'
p3660
(lp3661
F877.572650703
aF5.33850767082
asS'2000-01-01 00:26:05.285016'
p3662
(lp3663
F1997.43234012
aF12.1509117919
asS'2000-01-01 00:25:38.529862'
p3664
(lp3665
F2960.66939491
aF18.0105388002
asS'2000-01-01 00:25:56.542295'
p3666
(lp3667
F1345.99582959
aF8.188050363
asS'2000-01-01 00:25:46.948525'
p3668
(lp3669
F3721.14920916
aF22.6367396266
asS'2000-01-01 00:25:40.017296'
p3670
(lp3671
F3294.37393974
aF20.0405522366
asS'2000-01-01 00:26:14.880538'
p3672
(lp3673
F3799.70371164
aF23.114607543
asS'2000-01-01 00:25:22.337752'
p3674
(lp3675
F2732.21253515
aF16.6207750042
asS'2000-01-01 00:26:28.195050'
p3676
(lp3677
F713.903275287
aF4.34286336099
asS'2000-01-01 00:26:16.477910'
p3678
(lp3679
F3754.56340627
aF22.8400070682
asS'2000-01-01 00:25:28.515633'
p3680
(lp3681
F588.181233342
aF3.5780627661
asS'2000-01-01 00:25:45.232977'
p3682
(lp3683
F3798.86712205
aF23.1095183461
asS'2000-01-01 00:25:51.852551'
p3684
(lp3685
F2862.81850582
aF17.4152858356
asS'2000-01-01 00:25:48.540675'
p3686
(lp3687
F3541.74292501
aF21.5453635184
asS'2000-01-01 00:25:24.470568'
p3688
(lp3689
F2079.37139497
aF12.6493688398
asS'2000-01-01 00:25:32.884710'
p3690
(lp3691
F1130.62620077
aF6.87789967112
asS'2000-01-01 00:26:11.361196'
p3692
(lp3693
F3527.46936129
aF21.4585336368
asS'2000-01-01 00:25:56.862839'
p3694
(lp3695
F1225.94072515
aF7.45772325507
asS'2000-01-01 00:26:25.102123'
p3696
(lp3697
F1864.62470319
aF11.3430076395
asS'2000-01-01 00:26:18.605207'
p3698
(lp3699
F3532.35771317
aF21.4882707804
asS'2000-01-01 00:25:35.334593'
p3700
(lp3701
F2014.18745135
aF12.2528375866
asS'2000-01-01 00:25:40.655981'
p3702
(lp3703
F3413.58878569
aF20.7657678288
asS'2000-01-01 00:26:24.142563'
p3704
(lp3705
F2187.37419738
aF13.3063785913
asS'2000-01-01 00:25:46.841188'
p3706
(lp3707
F3729.56374724
aF22.687927498
asS'2000-01-01 00:25:37.362966'
p3708
(lp3709
F2648.23080125
aF16.1098917967
asS'2000-01-01 00:26:13.706874'
p3710
(lp3711
F3765.2230705
aF22.9048526388
asS'2000-01-01 00:25:53.874384'
p3712
(lp3713
F2273.73743689
aF13.8317491304
asS'2000-01-01 00:25:57.393288'
p3714
(lp3715
F1024.39059049
aF6.23164021901
asS'2000-01-01 00:25:39.486282'
p3716
(lp3717
F3184.0167296
aF19.3692199972
asS'2000-01-01 00:26:17.862323'
p3718
(lp3719
F3630.54432067
aF22.0855660094
asS'2000-01-01 00:26:17.013599'
p3720
(lp3721
F3715.81492428
aF22.6042897539
asS'2000-01-01 00:26:24.566316'
p3722
(lp3723
F2047.37648121
aF12.454735276
asS'2000-01-01 00:25:48.328052'
p3724
(lp3725
F3571.52195234
aF21.7265172562
asS'2000-01-01 00:25:42.357120'
p3726
(lp3727
F3655.41521784
aF22.2368622869
asS'2000-01-01 00:26:15.626791'
p3728
(lp3729
F3791.81179832
aF23.0665989367
asS'2000-01-01 00:25:36.398403'
p3730
(lp3731
F2359.94021269
aF14.3561435262
asS'2000-01-01 00:25:40.761791'
p3732
(lp3733
F3431.88501367
aF20.8770686463
asS'2000-01-01 00:25:32.457998'
p3734
(lp3735
F967.434938178
aF5.88516384865
asS'2000-01-01 00:26:23.611223'
p3736
(lp3737
F2356.79437988
aF14.3370065891
asS'2000-01-01 00:25:41.081363'
p3738
(lp3739
F3484.5479557
aF21.1974313192
asS'2000-01-01 00:25:38.104801'
p3740
(lp3741
F2851.74035916
aF17.3478945251
asS'2000-01-01 00:25:24.048167'
p3742
(lp3743
F2217.98300662
aF13.492580113
asS'2000-01-01 00:25:23.409475'
p3744
(lp3745
F2419.24251038
aF14.7168951641
asS'2000-01-01 00:26:25.208374'
p3746
(lp3747
F1827.63915033
aF11.1180146917
asS'2000-01-01 00:26:09.544781'
p3748
(lp3749
F3196.66369738
aF19.4461548634
asS'2000-01-01 00:25:22.125074'
p3750
(lp3751
F2790.34989533
aF16.9744400176
asS'2000-01-01 00:25:47.479773'
p3752
(lp3753
F3672.57209357
aF22.3412321219
asS'2000-01-01 00:25:37.150311'
p3754
(lp3755
F2586.89000225
aF15.7367394135
asS'2000-01-01 00:25:36.939141'
p3756
(lp3757
F2524.71217899
aF15.3584951893
asS'2000-01-01 00:25:46.298514'
p3758
(lp3759
F3764.91088751
aF22.9029535467
asS'2000-01-01 00:25:40.868195'
p3760
(lp3761
F3449.84685906
aF20.9863353256
asS'2000-01-01 00:26:00.712078'
p3762
(lp3763
F283.183607302
aF1.72268114625
asS'2000-01-01 00:25:49.391146'
p3764
(lp3765
F3405.23256151
aF20.7149346963
asS'2000-01-01 00:25:20.318053'
p3766
(lp3767
F3225.75732493
aF19.6231391321
asS'2000-01-01 00:25:22.664564'
p3768
(lp3769
F2640.24354961
aF16.0613032222
asS'2000-01-01 00:26:25.744203'
p3770
(lp3771
F1637.93529649
aF9.96399573028
asS'2000-01-01 00:25:27.029142'
p3772
(lp3773
F1163.1531664
aF7.07576984788
asS'2000-01-01 00:26:09.756193'
p3774
(lp3775
F3241.36964201
aF19.7181130063
asS'2000-01-01 00:26:26.488269'
p3776
(lp3777
F1366.07881652
aF8.31022051002
asS'2000-01-01 00:26:04.861068'
p3778
(lp3779
F1851.99388408
aF11.2661710099
asS'2000-01-01 00:26:08.587796'
p3780
(lp3781
F2975.06815969
aF18.0981303132
asS'2000-01-01 00:25:38.423691'
p3782
(lp3783
F2934.00219708
aF17.8483151483
asS'2000-01-01 00:25:44.056377'
p3784
(lp3785
F3781.47052273
aF23.0036902089
asS'2000-01-01 00:25:22.876493'
p3786
(lp3787
F2578.92556657
aF15.6882896346
asS'2000-01-01 00:26:03.479790'
p3788
(lp3789
F1354.36293009
aF8.23894965909
asS'2000-01-01 00:26:17.648255'
p3790
(lp3791
F3654.7842676
aF22.2330240489
asS'2000-01-01 00:26:12.857936'
p3792
(lp3793
F3704.81425684
aF22.5373697702
asS'2000-01-01 00:26:30.001613'
p3794
(lp3795
F0.724656115073
aF0.00440827574324
asS'2000-01-01 00:25:54.732418'
p3796
(lp3797
F1991.38449137
aF12.1141211206
asS'2000-01-01 00:26:20.953643'
p3798
(lp3799
F3085.0222159
aF18.7670100601
asS'2000-01-01 00:26:00.819613'
p3800
(lp3801
F325.835300731
aF1.98214273312
asS'2000-01-01 00:26:11.999113'
p3802
(lp3803
F3613.9310058
aF21.9845027996
asS'2000-01-01 00:25:51.320870'
p3804
(lp3805
F2997.44111858
aF18.2342309683
asS'2000-01-01 00:26:06.994413'
p3806
(lp3807
F2541.10285298
aF15.4582040155
asS'2000-01-01 00:26:23.718455'
p3808
(lp3809
F2323.17257572
aF14.1324762186
asS'2000-01-01 00:25:52.277279'
p3810
(lp3811
F2748.88167762
aF16.7221778281
asS'2000-01-01 00:25:31.393903'
p3812
(lp3813
F552.83724543
aF3.36305589409
asS'2000-01-01 00:26:29.895824'
p3814
(lp3815
F41.3700928081
aF0.251665269675
asS'2000-01-01 00:25:26.390380'
p3816
(lp3817
F1402.34239027
aF8.53082146712
asS'2000-01-01 00:25:35.652267'
p3818
(lp3819
F2120.24684461
aF12.8980250637
asS'2000-01-01 00:25:30.969984'
p3820
(lp3821
F385.408802566
aF2.34454417791
asS'2000-01-01 00:25:56.116875'
p3822
(lp3823
F1502.9192816
aF9.14265742789
asS'2000-01-01 00:25:52.170247'
p3824
(lp3825
F2778.10867757
aF16.8999734366
asS'2000-01-01 00:26:00.604096'
p3826
(lp3827
F240.315253738
aF1.4619015582
asS'2000-01-01 00:26:03.266898'
p3828
(lp3829
F1274.87992134
aF7.75543339234
asS'2000-01-01 00:25:31.501315'
p3830
(lp3831
F595.08610498
aF3.62006693541
asS'2000-01-01 00:25:30.321050'
p3832
(lp3833
F127.816496957
aF0.77754172138
asS'2000-01-01 00:26:13.070920'
p3834
(lp3835
F3722.74292065
aF22.6464345971
asS'2000-01-01 00:25:23.089863'
p3836
(lp3837
F2515.94512028
aF15.3051628412
asS'2000-01-01 00:25:59.525111'
p3838
(lp3839
F188.813259707
aF1.14860124058
asS'2000-01-01 00:26:00.285905'
p3840
(lp3841
F113.840928399
aF0.692524623488
asS'2000-01-01 00:26:21.803985'
p3842
(lp3843
F2875.48964607
aF17.4923677494
asS'2000-01-01 00:26:05.179425'
p3844
(lp3845
F1961.5635908
aF11.9327126568
asS'2000-01-01 00:25:25.858144'
p3846
(lp3847
F1596.92015752
aF9.71448973913
asS'2000-01-01 00:26:18.818090'
p3848
(lp3849
F3500.25111168
aF21.2929577905
asS'2000-01-01 00:25:50.784977'
p3850
(lp3851
F3123.70765346
aF19.0023438584
asS'2000-01-01 00:25:26.712135'
p3852
(lp3853
F1282.58093636
aF7.80228071344
asS'2000-01-01 00:25:49.604448'
p3854
(lp3855
F3366.715542
aF20.4806254297
asS'2000-01-01 00:26:19.030963'
p3856
(lp3857
F3466.40745156
aF21.0870778112
asS'2000-01-01 00:25:26.923673'
p3858
(lp3859
F1203.03750309
aF7.31839686819
asS'2000-01-01 00:26:10.181533'
p3860
(lp3861
F3326.46353606
aF20.2357617796
asS'2000-01-01 00:26:26.699119'
p3862
(lp3863
F1287.45571722
aF7.831935301
asS'2000-01-01 00:26:22.229825'
p3864
(lp3865
F2761.86326142
aF16.8011482525
asS'2000-01-01 00:25:30.428517'
p3866
(lp3867
F170.552572383
aF1.03751662636
asS'2000-01-01 00:25:48.753648'
p3868
(lp3869
F3510.15443315
aF21.353202327
asS'2000-01-01 00:25:57.499323'
p3870
(lp3871
F983.694967501
aF5.98407792852
asS'2000-01-01 00:26:31.066349'
p3872
(lp3873
F423.54057375
aF2.57650987648
asS'2000-01-01 00:26:11.679593'
p3874
(lp3875
F3572.61578151
aF21.7331713097
asS'2000-01-01 00:25:29.258036'
p3876
(lp3877
F294.872413631
aF1.79378726174
asS'2000-01-01 00:26:06.348578'
p3878
(lp3879
F2344.35457451
aF14.2613319468
asS'2000-01-01 00:25:31.714168'
p3880
(lp3881
F678.551540011
aF4.1278093597
asS'2000-01-01 00:25:43.525091'
p3882
(lp3883
F3754.77819529
aF22.8413136869
asS'2000-01-01 00:25:48.011536'
p3884
(lp3885
F3612.56616046
aF21.9762000827
asS'2000-01-01 00:26:21.060432'
p3886
(lp3887
F3060.01920131
aF18.6149100772
asS'2000-01-01 00:26:23.080712'
p3888
(lp3889
F2518.67359203
aF15.32176086
asS'2000-01-01 00:25:21.698528'
p3890
(lp3891
F2902.75084012
aF17.6582048381
asS'2000-01-01 00:25:57.819347'
p3892
(lp3893
F860.154298695
aF5.23254720619
asS'2000-01-01 00:26:10.501364'
p3894
(lp3895
F3386.12336214
aF20.5986883578
asS'2000-01-01 00:26:07.525485'
p3896
(lp3897
F2694.22561332
aF16.3896904628
asS'2000-01-01 00:25:28.622766'
p3898
(lp3899
F546.068260312
aF3.32187835859
asS'2000-01-01 00:26:31.173599'
p3900
(lp3901
F465.94294455
aF2.83445476753
asS'2000-01-01 00:26:11.785450'
p3902
(lp3903
F3586.75069919
aF21.8191577707
asS'2000-01-01 00:25:26.070101'
p3904
(lp3905
F1519.99327111
aF9.24652304391
asS'2000-01-01 00:25:27.134694'
p3906
(lp3907
F1123.09426384
aF6.83208089697
asS'2000-01-01 00:25:38.742094'
p3908
(lp3909
F3012.87809215
aF18.3281381813
asS'2000-01-01 00:26:21.591453'
p3910
(lp3911
F2930.06315858
aF17.8243529302
asS'2000-01-01 00:26:09.969772'
p3912
(lp3913
F3284.90687213
aF19.9829615483
asS'2000-01-01 00:26:18.286067'
p3914
(lp3915
F3577.19343954
aF21.7610184202
asS'2000-01-01 00:25:30.650094'
p3916
(lp3917
F258.578780579
aF1.57300344595
asS'2000-01-01 00:25:49.817189'
p3918
(lp3919
F3326.62320288
aF20.2367330753
asS'2000-01-01 00:25:34.264301'
p3920
(lp3921
F1641.15292129
aF9.98356939711
asS'2000-01-01 00:25:47.798820'
p3922
(lp3923
F3637.92494441
aF22.1304643052
asS'2000-01-01 00:25:35.546727'
p3924
(lp3925
F2085.26816983
aF12.6852404886
asS'2000-01-01 00:25:21.486870'
p3926
(lp3927
F2956.38799996
aF17.9844939368
asS'2000-01-01 00:25:51.427477'
p3928
(lp3929
F2971.17880612
aF18.0744703417
asS'2000-01-01 00:26:14.450848'
p3930
(lp3931
F3793.72309135
aF23.0782258402
asS'2000-01-01 00:25:37.255984'
p3932
(lp3933
F2617.53502093
aF15.9231612069
asS'2000-01-01 00:26:29.789713'
p3934
(lp3935
F83.5910403944
aF0.508506515101
asS'2000-01-01 00:25:32.673557'
p3936
(lp3937
F1050.13538924
aF6.38825267211
asS'2000-01-01 00:26:12.530519'
p3938
(lp3939
F3673.6635036
aF22.3478714592
asS'2000-01-01 00:26:28.725887'
p3940
(lp3941
F505.430789208
aF3.07466982146
asS'2000-01-01 00:25:27.560241'
p3942
(lp3943
F960.255394362
aF5.84148877547
asS'2000-01-01 00:26:11.891692'
p3944
(lp3945
F3600.49069857
aF21.9027418386
asS'2000-01-01 00:25:55.691250'
p3946
(lp3947
F1656.93712328
aF10.0795888929
asS'2000-01-01 00:25:21.380562'
p3948
(lp3949
F2982.77883989
aF18.1450364301
asS'2000-01-01 00:26:12.636257'
p3950
(lp3951
F3684.20446491
aF22.4119949283
asS'2000-01-01 00:26:02.306383'
p3952
(lp3953
F908.976320144
aF5.52954453832
asS'2000-01-01 00:26:10.721564'
p3954
(lp3955
F3424.97544175
aF20.8350358839
asS'2000-01-01 00:25:49.497035'
p3956
(lp3957
F3386.32237412
aF20.5998990005
asS'2000-01-01 00:26:01.667960'
p3958
(lp3959
F660.451403714
aF4.01770142005
asS'2000-01-01 00:26:29.577483'
p3960
(lp3961
F167.997989307
aF1.02197641857
asS'2000-01-01 00:25:22.558363'
p3962
(lp3963
F2670.47191002
aF16.2451903725
asS'2000-01-01 00:26:18.179670'
p3964
(lp3965
F3591.25256293
aF21.8465438043
asS'2000-01-01 00:26:20.095556'
p3966
(lp3967
F3271.67765682
aF19.9024847155
asS'2000-01-01 00:26:09.863857'
p3968
(lp3969
F3263.51636185
aF19.8528373892
asS'2000-01-01 00:25:35.227913'
p3970
(lp3971
F1978.09442549
aF12.0332741177
asS'2000-01-01 00:26:04.648209'
p3972
(lp3973
F1777.6159684
aF10.8137103811
asS'2000-01-01 00:25:34.476374'
p3974
(lp3975
F1716.85981938
aF10.4441145791
asS'2000-01-01 00:26:24.460835'
p3976
(lp3977
F2082.61343676
aF12.6690910418
asS'2000-01-01 00:26:12.211066'
p3978
(lp3979
F3639.10927166
aF22.1376688826
asS'2000-01-01 00:25:20.107944'
p3980
(lp3981
F3269.19316287
aF19.8873708785
asS'2000-01-01 00:25:37.893097'
p3982
(lp3983
F2795.36465536
aF17.0049461357
asS'2000-01-01 00:26:00.178403'
p3984
(lp3985
F71.0730176689
aF0.432356055888
asS'2000-01-01 00:25:55.479777'
p3986
(lp3987
F1732.25524265
aF10.5377690306
asS'2000-01-01 00:25:39.379425'
p3988
(lp3989
F3160.60885919
aF19.2268237002
asS'2000-01-01 00:26:20.520791'
p3990
(lp3991
F3182.38974732
aF19.3593226315
asS'2000-01-01 00:25:22.019552'
p3992
(lp3993
F2818.67931777
aF17.1467754236
asS'2000-01-01 00:25:23.516827'
p3994
(lp3995
F2386.14956992
aF14.5155820119
asS'2000-01-01 00:26:02.200622'
p3996
(lp3997
F868.089354908
aF5.28081826208
asS'2000-01-01 00:26:07.100243'
p3998
(lp3999
F2572.26197333
aF15.6477532259
asS'2000-01-01 00:26:11.574148'
p4000
(lp4001
F3558.10194462
aF21.6448797825
asS'2000-01-01 00:26:06.888483'
p4002
(lp4003
F2509.60972738
aF15.2666229624
asS'2000-01-01 00:26:16.052617'
p4004
(lp4005
F3776.92819568
aF22.9760580262
asS'2000-01-01 00:26:29.363991'
p4006
(lp4007
F252.82141316
aF1.53797984978
asS'2000-01-01 00:25:22.231793'
p4008
(lp4009
F2761.32478282
aF16.7978725441
asS'2000-01-01 00:26:06.675744'
p4010
(lp4011
F2445.42867896
aF14.8761925871
asS'2000-01-01 00:25:55.903997'
p4012
(lp4013
F1580.34435135
aF9.61365470475
asS'2000-01-01 00:26:14.238180'
p4014
(lp4015
F3787.92055413
aF23.0429274641
asS'2000-01-01 00:25:31.287805'
p4016
(lp4017
F510.994446642
aF3.10851502831
asS'2000-01-01 00:25:56.755311'
p4018
(lp4019
F1266.34086402
aF7.70348803715
asS'2000-01-01 00:25:48.117100'
p4020
(lp4021
F3599.31773857
aF21.8956064113
asS'2000-01-01 00:26:04.222837'
p4022
(lp4023
F1626.25495268
aF9.89294109455
asS'2000-01-01 00:25:43.207102'
p4024
(lp4025
F3733.23620353
aF22.7102680257
asS'2000-01-01 00:26:15.946928'
p4026
(lp4027
F3781.32414979
aF23.0027997834
asS'2000-01-01 00:26:13.177039'
p4028
(lp4029
F3730.98504631
aF22.696573638
asS'2000-01-01 00:25:40.335623'
p4030
(lp4031
F3355.66847177
aF20.4134231655
asS'2000-01-01 00:25:21.062138'
p4032
(lp4033
F3059.61357141
aF18.6124425227
asS'2000-01-01 00:26:10.287697'
p4034
(lp4035
F3346.67546778
aF20.3587163321
asS'2000-01-01 00:26:23.825206'
p4036
(lp4037
F2289.41213953
aF13.9271025125
asS'2000-01-01 00:26:08.907901'
p4038
(lp4039
F3052.62877313
aF18.5699521384
asS'2000-01-01 00:26:09.013487'
p4040
(lp4041
F3077.46351313
aF18.7210284622
asS'2000-01-01 00:26:00.497809'
p4042
(lp4043
F198.088587148
aF1.20502552255
asS'2000-01-01 00:25:33.838949'
p4044
(lp4045
F1486.9112225
aF9.04527614982
asS'2000-01-01 00:25:47.372373'
p4046
(lp4047
F3683.3144849
aF22.4065809434
asS'2000-01-01 00:26:12.423135'
p4048
(lp4049
F3662.50438867
aF22.2799875972
asS'2000-01-01 00:25:29.152226'
p4050
(lp4051
F336.834384352
aF2.04905308206
asS'2000-01-01 00:25:59.737591'
p4052
(lp4053
F104.326270595
aF0.634644431313
asS'2000-01-01 00:26:13.601226'
p4054
(lp4055
F3759.31801002
aF22.8689305865
asS'2000-01-01 00:25:35.440760'
p4056
(lp4057
F2049.92294679
aF12.4702261029
asS'2000-01-01 00:25:43.950699'
p4058
(lp4059
F3777.09453758
aF22.9770699282
ass.