(dp0
S'Potentiometer1'
p1
(dp2
S'2000-01-01 00:03:28.431998'
p3
F0.795999984741
sS'2000-01-01 00:03:34.049274'
p4
F0.794400014877
sS'2000-01-01 00:03:11.178753'
p5
F0.796800012589
sS'2000-01-01 00:03:28.729091'
p6
F0.794400014877
sS'2000-01-01 00:03:29.320446'
p7
F0.796800012589
sS'2000-01-01 00:03:25.080214'
p8
F0.7992000103
sS'2000-01-01 00:03:23.010389'
p9
F0.798399982452
sS'2000-01-01 00:03:24.883892'
p10
F0.795999984741
sS'2000-01-01 00:03:20.346619'
p11
F0.800799980164
sS'2000-01-01 00:03:21.434193'
p12
F0.7992000103
sS'2000-01-01 00:03:09.011149'
p13
F0.796800012589
sS'2000-01-01 00:03:22.614970'
p14
F0.7992000103
sS'2000-01-01 00:03:24.488697'
p15
F0.798399982452
sS'2000-01-01 00:03:32.177957'
p16
F0.795999984741
sS'2000-01-01 00:03:27.251831'
p17
F0.800799980164
sS'2000-01-01 00:03:10.290105'
p18
F0.796800012589
sS'2000-01-01 00:03:13.347380'
p19
F0.796800012589
sS'2000-01-01 00:03:34.147819'
p20
F0.797600040436
sS'2000-01-01 00:03:14.926692'
p21
F0.797600040436
sS'2000-01-01 00:03:15.615766'
p22
F0.795200042725
sS'2000-01-01 00:03:16.404505'
p23
F0.795999984741
sS'2000-01-01 00:03:30.107937'
p24
F0.797600040436
sS'2000-01-01 00:03:18.967880'
p25
F0.800000038147
sS'2000-01-01 00:03:12.558324'
p26
F0.797600040436
sS'2000-01-01 00:03:33.655408'
p27
F0.795200042725
sS'2000-01-01 00:03:33.851839'
p28
F0.797600040436
sS'2000-01-01 00:03:33.557297'
p29
F0.796800012589
sS'2000-01-01 00:03:14.232780'
p30
F0.796800012589
sS'2000-01-01 00:03:16.897883'
p31
F0.795999984741
sS'2000-01-01 00:03:19.558966'
p32
F0.795999984741
sS'2000-01-01 00:03:23.601534'
p33
F0.800000038147
sS'2000-01-01 00:03:21.335919'
p34
F0.795999984741
sS'2000-01-01 00:03:23.898560'
p35
F0.798399982452
sS'2000-01-01 00:03:14.134229'
p36
F0.795999984741
sS'2000-01-01 00:03:31.291623'
p37
F0.795999984741
sS'2000-01-01 00:03:31.980262'
p38
F0.794400014877
sS'2000-01-01 00:03:10.093659'
p39
F0.796800012589
sS'2000-01-01 00:03:09.699844'
p40
F0.797600040436
sS'2000-01-01 00:03:22.715030'
p41
F0.796800012589
sS'2000-01-01 00:03:23.700838'
p42
F0.797600040436
sS'2000-01-01 00:03:10.883455'
p43
F0.795200042725
sS'2000-01-01 00:03:24.686705'
p44
F0.797600040436
sS'2000-01-01 00:03:27.645543'
p45
F0.797600040436
sS'2000-01-01 00:03:23.208016'
p46
F0.800799980164
sS'2000-01-01 00:03:21.630588'
p47
F0.800799980164
sS'2000-01-01 00:03:17.980633'
p48
F0.795999984741
sS'2000-01-01 00:03:32.769067'
p49
F0.796800012589
sS'2000-01-01 00:03:11.671360'
p50
F0.797600040436
sS'2000-01-01 00:03:13.051694'
p51
F0.795999984741
sS'2000-01-01 00:03:33.949949'
p52
F0.795999984741
sS'2000-01-01 00:03:32.374351'
p53
F0.795999984741
sS'2000-01-01 00:03:14.036232'
p54
F0.795200042725
sS'2000-01-01 00:03:33.753631'
p55
F0.796800012589
sS'2000-01-01 00:03:23.799985'
p56
F0.795999984741
sS'2000-01-01 00:03:18.276771'
p57
F0.795200042725
sS'2000-01-01 00:03:20.744042'
p58
F0.7992000103
sS'2000-01-01 00:03:19.065917'
p59
F0.7992000103
sS'2000-01-01 00:03:29.222152'
p60
F0.795999984741
sS'2000-01-01 00:03:24.194200'
p61
F0.800799980164
sS'2000-01-01 00:03:10.191791'
p62
F0.798399982452
sS'2000-01-01 00:03:19.460862'
p63
F0.800000038147
sS'2000-01-01 00:03:26.163974'
p64
F0.800799980164
sS'2000-01-01 00:03:11.277237'
p65
F0.797600040436
sS'2000-01-01 00:03:09.207984'
p66
F0.797600040436
sS'2000-01-01 00:03:18.473017'
p67
F0.795999984741
sS'2000-01-01 00:03:25.770207'
p68
F0.796800012589
sS'2000-01-01 00:03:26.262397'
p69
F0.800000038147
sS'2000-01-01 00:03:21.926131'
p70
F0.7992000103
sS'2000-01-01 00:03:24.094889'
p71
F0.7992000103
sS'2000-01-01 00:03:12.953492'
p72
F0.795999984741
sS'2000-01-01 00:03:30.600048'
p73
F0.795999984741
sS'2000-01-01 00:03:26.557301'
p74
F0.7992000103
sS'2000-01-01 00:03:23.108531'
p75
F0.795999984741
sS'2000-01-01 00:03:11.770133'
p76
F0.796800012589
sS'2000-01-01 00:03:16.010387'
p77
F0.797600040436
sS'2000-01-01 00:03:30.402724'
p78
F0.796800012589
sS'2000-01-01 00:03:10.586465'
p79
F0.794400014877
sS'2000-01-01 00:03:10.981598'
p80
F0.796800012589
sS'2000-01-01 00:03:31.389921'
p81
F0.797600040436
sS'2000-01-01 00:03:33.261902'
p82
F0.795999984741
sS'2000-01-01 00:03:25.672043'
p83
F0.795999984741
sS'2000-01-01 00:03:13.938108'
p84
F0.795200042725
sS'2000-01-01 00:03:30.797846'
p85
F0.795999984741
sS'2000-01-01 00:03:09.405348'
p86
F0.795999984741
sS'2000-01-01 00:03:19.854768'
p87
F0.7992000103
sS'2000-01-01 00:03:14.332199'
p88
F0.796800012589
sS'2000-01-01 00:03:10.389338'
p89
F0.795999984741
sS'2000-01-01 00:03:32.669837'
p90
F0.797600040436
sS'2000-01-01 00:03:25.474555'
p91
F0.797600040436
sS'2000-01-01 00:03:26.459123'
p92
F0.800799980164
sS'2000-01-01 00:03:16.305970'
p93
F0.795999984741
sS'2000-01-01 00:03:15.419310'
p94
F0.797600040436
sS'2000-01-01 00:03:22.122254'
p95
F0.795999984741
sS'2000-01-01 00:03:12.262751'
p96
F0.797600040436
sS'2000-01-01 00:03:33.359990'
p97
F0.795200042725
sS'2000-01-01 00:03:17.881768'
p98
F0.797600040436
sS'2000-01-01 00:03:30.008724'
p99
F0.796800012589
sS'2000-01-01 00:03:23.996750'
p100
F0.800000038147
sS'2000-01-01 00:03:17.586098'
p101
F0.796800012589
sS'2000-01-01 00:03:27.053886'
p102
F0.800000038147
sS'2000-01-01 00:03:12.066337'
p103
F0.796800012589
sS'2000-01-01 00:03:15.813335'
p104
F0.795999984741
sS'2000-01-01 00:03:26.857673'
p105
F0.7992000103
sS'2000-01-01 00:03:29.024029'
p106
F0.795999984741
sS'2000-01-01 00:03:11.474784'
p107
F0.797600040436
sS'2000-01-01 00:03:31.882015'
p108
F0.796800012589
sS'2000-01-01 00:03:30.304643'
p109
F0.795999984741
sS'2000-01-01 00:03:29.910558'
p110
F0.795999984741
sS'2000-01-01 00:03:25.966659'
p111
F0.800000038147
sS'2000-01-01 00:03:20.641673'
p112
F0.797600040436
sS'2000-01-01 00:03:18.177385'
p113
F0.797600040436
sS'2000-01-01 00:03:11.376435'
p114
F0.796800012589
sS'2000-01-01 00:03:15.713969'
p115
F0.796800012589
sS'2000-01-01 00:03:25.868360'
p116
F0.796800012589
sS'2000-01-01 00:03:19.362603'
p117
F0.800000038147
sS'2000-01-01 00:03:28.137420'
p118
F0.7992000103
sS'2000-01-01 00:03:13.839898'
p119
F0.796800012589
sS'2000-01-01 00:03:32.276217'
p120
F0.795999984741
sS'2000-01-01 00:03:21.828084'
p121
F0.800000038147
sS'2000-01-01 00:03:31.783882'
p122
F0.795200042725
sS'2000-01-01 00:03:29.615938'
p123
F0.797600040436
sS'2000-01-01 00:03:19.264380'
p124
F0.800000038147
sS'2000-01-01 00:03:18.771336'
p125
F0.797600040436
sS'2000-01-01 00:03:09.995481'
p126
F0.796800012589
sS'2000-01-01 00:03:27.841918'
p127
F0.800799980164
sS'2000-01-01 00:03:26.360606'
p128
F0.800000038147
sS'2000-01-01 00:03:08.714836'
p129
F0.795999984741
sS'2000-01-01 00:03:22.516758'
p130
F0.797600040436
sS'2000-01-01 00:03:11.572920'
p131
F0.796800012589
sS'2000-01-01 00:03:24.292352'
p132
F0.800799980164
sS'2000-01-01 00:03:16.996137'
p133
F0.794400014877
sS'2000-01-01 00:03:15.122972'
p134
F0.795200042725
sS'2000-01-01 00:03:31.587585'
p135
F0.796800012589
sS'2000-01-01 00:03:22.222177'
p136
F0.800000038147
sS'2000-01-01 00:03:22.418626'
p137
F0.800799980164
sS'2000-01-01 00:03:17.291691'
p138
F0.797600040436
sS'2000-01-01 00:03:15.517550'
p139
F0.796800012589
sS'2000-01-01 00:03:28.629314'
p140
F0.796800012589
sS'2000-01-01 00:03:20.444652'
p141
F0.795999984741
sS'2000-01-01 00:03:32.571690'
p142
F0.795999984741
sS'2000-01-01 00:03:17.684229'
p143
F0.795999984741
sS'2000-01-01 00:03:09.601719'
p144
F0.797600040436
sS'2000-01-01 00:03:13.740177'
p145
F0.796800012589
sS'2000-01-01 00:03:12.460118'
p146
F0.796800012589
sS'2000-01-01 00:03:24.390570'
p147
F0.800799980164
sS'2000-01-01 00:03:26.659479'
p148
F0.797600040436
sS'2000-01-01 00:03:18.078773'
p149
F0.7992000103
sS'2000-01-01 00:03:18.869690'
p150
F0.797600040436
sS'2000-01-01 00:03:26.955766'
p151
F0.7992000103
sS'2000-01-01 00:03:32.867361'
p152
F0.795999984741
sS'2000-01-01 00:03:28.925881'
p153
F0.795999984741
sS'2000-01-01 00:03:15.321190'
p154
F0.795999984741
sS'2000-01-01 00:03:16.699815'
p155
F0.795999984741
sS'2000-01-01 00:03:17.487997'
p156
F0.795999984741
sS'2000-01-01 00:03:25.572699'
p157
F0.7992000103
sS'2000-01-01 00:03:32.966286'
p158
F0.795999984741
sS'2000-01-01 00:03:19.657160'
p159
F0.795999984741
sS'2000-01-01 00:03:29.714024'
p160
F0.795999984741
sS'2000-01-01 00:03:23.503404'
p161
F0.7992000103
sS'2000-01-01 00:03:15.024784'
p162
F0.797600040436
sS'2000-01-01 00:03:24.982137'
p163
F0.798399982452
sS'2000-01-01 00:03:21.532385'
p164
F0.795999984741
sS'2000-01-01 00:03:20.842422'
p165
F0.800799980164
sS'2000-01-01 00:03:21.038801'
p166
F0.801600008011
sS'2000-01-01 00:03:09.897394'
p167
F0.796800012589
sS'2000-01-01 00:03:09.503634'
p168
F0.797600040436
sS'2000-01-01 00:03:27.448150'
p169
F0.800000038147
sS'2000-01-01 00:03:27.743674'
p170
F0.795200042725
sS'2000-01-01 00:03:10.685513'
p171
F0.7992000103
sS'2000-01-01 00:03:16.206736'
p172
F0.797600040436
sS'2000-01-01 00:03:14.528420'
p173
F0.795999984741
sS'2000-01-01 00:03:30.995052'
p174
F0.796800012589
sS'2000-01-01 00:03:17.389787'
p175
F0.795999984741
sS'2000-01-01 00:03:22.320482'
p176
F0.795200042725
sS'2000-01-01 00:03:12.657113'
p177
F0.795200042725
sS'2000-01-01 00:03:24.586848'
p178
F0.797600040436
sS'2000-01-01 00:03:31.193253'
p179
F0.795999984741
sS'2000-01-01 00:03:17.192495'
p180
F0.796800012589
sS'2000-01-01 00:03:09.109338'
p181
F0.795200042725
sS'2000-01-01 00:03:18.671528'
p182
F0.794400014877
sS'2000-01-01 00:03:29.516724'
p183
F0.797600040436
sS'2000-01-01 00:03:29.123704'
p184
F0.795999984741
sS'2000-01-01 00:03:14.728578'
p185
F0.796800012589
sS'2000-01-01 00:03:27.546226'
p186
F0.800799980164
sS'2000-01-01 00:03:26.759269'
p187
F0.795200042725
sS'2000-01-01 00:03:32.472533'
p188
F0.796800012589
sS'2000-01-01 00:03:14.430286'
p189
F0.796800012589
sS'2000-01-01 00:03:16.108522'
p190
F0.796800012589
sS'2000-01-01 00:03:30.896889'
p191
F0.795200042725
sS'2000-01-01 00:03:13.149772'
p192
F0.796800012589
sS'2000-01-01 00:03:29.418601'
p193
F0.795999984741
sS'2000-01-01 00:03:18.571678'
p194
F0.796800012589
sS'2000-01-01 00:03:23.306371'
p195
F0.7992000103
sS'2000-01-01 00:03:22.912198'
p196
F0.800000038147
sS'2000-01-01 00:03:18.374960'
p197
F0.796800012589
sS'2000-01-01 00:03:21.237700'
p198
F0.798399982452
sS'2000-01-01 00:03:12.164436'
p199
F0.795999984741
sS'2000-01-01 00:03:09.798050'
p200
F0.796800012589
sS'2000-01-01 00:03:20.051029'
p201
F0.800799980164
sS'2000-01-01 00:03:30.500837'
p202
F0.796800012589
sS'2000-01-01 00:03:31.488247'
p203
F0.797600040436
sS'2000-01-01 00:03:27.153189'
p204
F0.7992000103
sS'2000-01-01 00:03:19.164646'
p205
F0.795999984741
sS'2000-01-01 00:03:30.206272'
p206
F0.795999984741
sS'2000-01-01 00:03:25.179526'
p207
F0.800799980164
sS'2000-01-01 00:03:16.600790'
p208
F0.796800012589
sS'2000-01-01 00:03:25.375650'
p209
F0.7992000103
sS'2000-01-01 00:03:32.079487'
p210
F0.796800012589
sS'2000-01-01 00:03:27.349974'
p211
F0.796800012589
sS'2000-01-01 00:03:23.405318'
p212
F0.794400014877
sS'2000-01-01 00:03:14.828470'
p213
F0.794400014877
sS'2000-01-01 00:03:10.784063'
p214
F0.795999984741
sS'2000-01-01 00:03:13.641812'
p215
F0.796800012589
sS'2000-01-01 00:03:19.756537'
p216
F0.795999984741
sS'2000-01-01 00:03:20.542876'
p217
F0.798399982452
sS'2000-01-01 00:03:20.248429'
p218
F0.800799980164
sS'2000-01-01 00:03:28.333912'
p219
F0.800799980164
sS'2000-01-01 00:03:13.543621'
p220
F0.797600040436
sS'2000-01-01 00:03:17.783617'
p221
F0.796800012589
sS'2000-01-01 00:03:24.785621'
p222
F0.7992000103
sS'2000-01-01 00:03:21.137527'
p223
F0.800000038147
sS'2000-01-01 00:03:31.685662'
p224
F0.796800012589
sS'2000-01-01 00:03:25.277564'
p225
F0.800799980164
sS'2000-01-01 00:03:12.755733'
p226
F0.795999984741
sS'2000-01-01 00:03:21.729833'
p227
F0.795999984741
sS'2000-01-01 00:03:28.235633'
p228
F0.800000038147
sS'2000-01-01 00:03:22.813958'
p229
F0.800000038147
sS'2000-01-01 00:03:11.080212'
p230
F0.795999984741
sS'2000-01-01 00:03:12.361983'
p231
F0.795999984741
sS'2000-01-01 00:03:20.940580'
p232
F0.796800012589
sS'2000-01-01 00:03:33.163871'
p233
F0.796800012589
sS'2000-01-01 00:03:08.813808'
p234
F0.795200042725
sS'2000-01-01 00:03:16.799797'
p235
F0.796800012589
sS'2000-01-01 00:03:15.221827'
p236
F0.796800012589
sS'2000-01-01 00:03:14.629324'
p237
F0.797600040436
sS'2000-01-01 00:03:08.913095'
p238
F0.796800012589
sS'2000-01-01 00:03:33.065605'
p239
F0.797600040436
sS'2000-01-01 00:03:28.530084'
p240
F0.797600040436
sS'2000-01-01 00:03:31.094365'
p241
F0.795999984741
sS'2000-01-01 00:03:22.024165'
p242
F0.7992000103
sS'2000-01-01 00:03:26.064683'
p243
F0.800000038147
sS'2000-01-01 00:03:16.502663'
p244
F0.796800012589
sS'2000-01-01 00:03:28.038223'
p245
F0.7992000103
sS'2000-01-01 00:03:09.306076'
p246
F0.796800012589
sS'2000-01-01 00:03:33.458102'
p247
F0.797600040436
sS'2000-01-01 00:03:15.912283'
p248
F0.797600040436
sS'2000-01-01 00:03:20.149103'
p249
F0.800000038147
sS'2000-01-01 00:03:13.248039'
p250
F0.797600040436
sS'2000-01-01 00:03:13.445461'
p251
F0.796800012589
sS'2000-01-01 00:03:28.827627'
p252
F0.797600040436
sS'2000-01-01 00:03:27.940089'
p253
F0.798399982452
sS'2000-01-01 00:03:11.968106'
p254
F0.796800012589
sS'2000-01-01 00:03:19.953013'
p255
F0.798399982452
sS'2000-01-01 00:03:11.869828'
p256
F0.796800012589
sS'2000-01-01 00:03:17.094334'
p257
F0.795200042725
sS'2000-01-01 00:03:12.855358'
p258
F0.796800012589
sS'2000-01-01 00:03:30.698981'
p259
F0.797600040436
sS'2000-01-01 00:03:29.812380'
p260
F0.795200042725
sS'2000-01-01 00:03:10.488260'
p261
F0.795200042725
ssS'Potentiometer0'
p262
(dp263
S'2000-01-01 00:03:24.146911'
p264
F0.716800017357
sS'2000-01-01 00:03:25.328427'
p265
F0.719200015068
sS'2000-01-01 00:03:33.116556'
p266
F0.716800017357
sS'2000-01-01 00:03:23.259057'
p267
F0.72
sS'2000-01-01 00:03:19.315362'
p268
F0.72
sS'2000-01-01 00:03:15.372083'
p269
F0.716800017357
sS'2000-01-01 00:03:10.046403'
p270
F0.716800017357
sS'2000-01-01 00:03:17.145325'
p271
F0.716800017357
sS'2000-01-01 00:03:10.637887'
p272
F0.716800017357
sS'2000-01-01 00:03:19.217073'
p273
F0.720800027847
sS'2000-01-01 00:03:32.918249'
p274
F0.716800017357
sS'2000-01-01 00:03:30.355552'
p275
F0.716800017357
sS'2000-01-01 00:03:34.100585'
p276
F0.714400019646
sS'2000-01-01 00:03:18.822418'
p277
F0.716800017357
sS'2000-01-01 00:03:18.523928'
p278
F0.716800017357
sS'2000-01-01 00:03:13.792473'
p279
F0.71599998951
sS'2000-01-01 00:03:32.721532'
p280
F0.716800017357
sS'2000-01-01 00:03:19.709198'
p281
F0.719200015068
sS'2000-01-01 00:03:12.117246'
p282
F0.716800017357
sS'2000-01-01 00:03:21.780891'
p283
F0.72
sS'2000-01-01 00:03:22.469607'
p284
F0.72
sS'2000-01-01 00:03:14.185443'
p285
F0.716800017357
sS'2000-01-01 00:03:10.934434'
p286
F0.716800017357
sS'2000-01-01 00:03:15.766076'
p287
F0.71599998951
sS'2000-01-01 00:03:22.667432'
p288
F0.716800017357
sS'2000-01-01 00:03:11.525664'
p289
F0.71599998951
sS'2000-01-01 00:03:28.780387'
p290
F0.716800017357
sS'2000-01-01 00:03:21.386870'
p291
F0.717600002289
sS'2000-01-01 00:03:12.215559'
p292
F0.716800017357
sS'2000-01-01 00:03:13.200832'
p293
F0.71599998951
sS'2000-01-01 00:03:16.159432'
p294
F0.716800017357
sS'2000-01-01 00:03:33.608246'
p295
F0.71599998951
sS'2000-01-01 00:03:33.706310'
p296
F0.71599998951
sS'2000-01-01 00:03:12.412968'
p297
F0.717600002289
sS'2000-01-01 00:03:09.160541'
p298
F0.716800017357
sS'2000-01-01 00:03:34.199524'
p299
F0.716800017357
sS'2000-01-01 00:03:27.499030'
p300
F0.720800027847
sS'2000-01-01 00:03:09.456335'
p301
F0.71599998951
sS'2000-01-01 00:03:09.750874'
p302
F0.716800017357
sS'2000-01-01 00:03:18.031511'
p303
F0.717600002289
sS'2000-01-01 00:03:19.807541'
p304
F0.72
sS'2000-01-01 00:03:21.878954'
p305
F0.721599969864
sS'2000-01-01 00:03:24.934824'
p306
F0.719200015068
sS'2000-01-01 00:03:11.427512'
p307
F0.71599998951
sS'2000-01-01 00:03:22.963113'
p308
F0.72
sS'2000-01-01 00:03:12.314791'
p309
F0.716800017357
sS'2000-01-01 00:03:22.174768'
p310
F0.720800027847
sS'2000-01-01 00:03:16.553637'
p311
F0.716800017357
sS'2000-01-01 00:03:18.723737'
p312
F0.716800017357
sS'2000-01-01 00:03:29.568755'
p313
F0.716800017357
sS'2000-01-01 00:03:10.242897'
p314
F0.716800017357
sS'2000-01-01 00:03:09.652583'
p315
F0.716800017357
sS'2000-01-01 00:03:10.539221'
p316
F0.714400019646
sS'2000-01-01 00:03:14.481273'
p317
F0.71599998951
sS'2000-01-01 00:03:30.158900'
p318
F0.717600002289
sS'2000-01-01 00:03:34.002054'
p319
F0.716800017357
sS'2000-01-01 00:03:26.810440'
p320
F0.720800027847
sS'2000-01-01 00:03:25.722898'
p321
F0.71599998951
sS'2000-01-01 00:03:22.075114'
p322
F0.72
sS'2000-01-01 00:03:29.076128'
p323
F0.716800017357
sS'2000-01-01 00:03:26.116685'
p324
F0.719200015068
sS'2000-01-01 00:03:31.244350'
p325
F0.716800017357
sS'2000-01-01 00:03:15.174507'
p326
F0.716800017357
sS'2000-01-01 00:03:24.245147'
p327
F0.72
sS'2000-01-01 00:03:20.397473'
p328
F0.719200015068
sS'2000-01-01 00:03:10.440326'
p329
F0.716800017357
sS'2000-01-01 00:03:20.299421'
p330
F0.716800017357
sS'2000-01-01 00:03:21.090028'
p331
F0.72
sS'2000-01-01 00:03:09.850211'
p332
F0.716800017357
sS'2000-01-01 00:03:24.441478'
p333
F0.719200015068
sS'2000-01-01 00:03:14.087072'
p334
F0.717600002289
sS'2000-01-01 00:03:25.132236'
p335
F0.72
sS'2000-01-01 00:03:33.312764'
p336
F0.716800017357
sS'2000-01-01 00:03:30.552880'
p337
F0.717600002289
sS'2000-01-01 00:03:33.018416'
p338
F0.715200004578
sS'2000-01-01 00:03:19.413579'
p339
F0.716800017357
sS'2000-01-01 00:03:33.902734'
p340
F0.71599998951
sS'2000-01-01 00:03:26.411834'
p341
F0.716800017357
sS'2000-01-01 00:03:28.286619'
p342
F0.717600002289
sS'2000-01-01 00:03:23.653540'
p343
F0.72
sS'2000-01-01 00:03:28.878627'
p344
F0.716800017357
sS'2000-01-01 00:03:15.075694'
p345
F0.71599998951
sS'2000-01-01 00:03:11.920841'
p346
F0.716800017357
sS'2000-01-01 00:03:17.736390'
p347
F0.716800017357
sS'2000-01-01 00:03:23.358130'
p348
F0.717600002289
sS'2000-01-01 00:03:29.174859'
p349
F0.716800017357
sS'2000-01-01 00:03:11.722352'
p350
F0.717600002289
sS'2000-01-01 00:03:30.651000'
p351
F0.716800017357
sS'2000-01-01 00:03:30.750491'
p352
F0.716800017357
sS'2000-01-01 00:03:28.681492'
p353
F0.716800017357
sS'2000-01-01 00:03:16.455435'
p354
F0.716800017357
sS'2000-01-01 00:03:13.594647'
p355
F0.716800017357
sS'2000-01-01 00:03:11.229866'
p356
F0.717600002289
sS'2000-01-01 00:03:12.511015'
p357
F0.716800017357
sS'2000-01-01 00:03:16.948893'
p358
F0.715200004578
sS'2000-01-01 00:03:32.032306'
p359
F0.716800017357
sS'2000-01-01 00:03:31.736610'
p360
F0.716800017357
sS'2000-01-01 00:03:18.920708'
p361
F0.716800017357
sS'2000-01-01 00:03:20.593719'
p362
F0.72
sS'2000-01-01 00:03:31.342656'
p363
F0.716800017357
sS'2000-01-01 00:03:09.358140'
p364
F0.716800017357
sS'2000-01-01 00:03:20.893427'
p365
F0.720800027847
sS'2000-01-01 00:03:18.129746'
p366
F0.716800017357
sS'2000-01-01 00:03:19.117157'
p367
F0.717600002289
sS'2000-01-01 00:03:22.371390'
p368
F0.717600002289
sS'2000-01-01 00:03:26.510042'
p369
F0.718399987221
sS'2000-01-01 00:03:14.284987'
p370
F0.716800017357
sS'2000-01-01 00:03:14.879500'
p371
F0.716800017357
sS'2000-01-01 00:03:23.456230'
p372
F0.720800027847
sS'2000-01-01 00:03:14.579354'
p373
F0.716800017357
sS'2000-01-01 00:03:21.485219'
p374
F0.719200015068
sS'2000-01-01 00:03:20.991529'
p375
F0.72
sS'2000-01-01 00:03:31.145698'
p376
F0.716800017357
sS'2000-01-01 00:03:10.342127'
p377
F0.71599998951
sS'2000-01-01 00:03:16.850696'
p378
F0.717600002289
sS'2000-01-01 00:03:09.948259'
p379
F0.716800017357
sS'2000-01-01 00:03:21.583302'
p380
F0.72
sS'2000-01-01 00:03:24.836717'
p381
F0.72
sS'2000-01-01 00:03:32.130412'
p382
F0.716800017357
sS'2000-01-01 00:03:25.426599'
p383
F0.72
sS'2000-01-01 00:03:32.327151'
p384
F0.71599998951
sS'2000-01-01 00:03:23.061365'
p385
F0.720800027847
sS'2000-01-01 00:03:27.598367'
p386
F0.720800027847
sS'2000-01-01 00:03:17.342641'
p387
F0.716800017357
sS'2000-01-01 00:03:21.190468'
p388
F0.716800017357
sS'2000-01-01 00:03:10.144496'
p389
F0.717600002289
sS'2000-01-01 00:03:24.738217'
p390
F0.716800017357
sS'2000-01-01 00:03:21.288717'
p391
F0.72
sS'2000-01-01 00:03:21.976985'
p392
F0.716800017357
sS'2000-01-01 00:03:29.469569'
p393
F0.716800017357
sS'2000-01-01 00:03:30.060713'
p394
F0.716800017357
sS'2000-01-01 00:03:10.736543'
p395
F0.717600002289
sS'2000-01-01 00:03:20.696395'
p396
F0.716800017357
sS'2000-01-01 00:03:33.804539'
p397
F0.71599998951
sS'2000-01-01 00:03:13.300119'
p398
F0.716800017357
sS'2000-01-01 00:03:20.003862'
p399
F0.720800027847
sS'2000-01-01 00:03:17.932614'
p400
F0.716800017357
sS'2000-01-01 00:03:24.638881'
p401
F0.72
sS'2000-01-01 00:03:16.652261'
p402
F0.717600002289
sS'2000-01-01 00:03:15.568513'
p403
F0.716800017357
sS'2000-01-01 00:03:20.795157'
p404
F0.719200015068
sS'2000-01-01 00:03:30.849665'
p405
F0.715200004578
sS'2000-01-01 00:03:19.511773'
p406
F0.716800017357
sS'2000-01-01 00:03:19.018735'
p407
F0.72
sS'2000-01-01 00:03:09.258899'
p408
F0.719200015068
sS'2000-01-01 00:03:17.538899'
p409
F0.71599998951
sS'2000-01-01 00:03:20.101885'
p410
F0.718399987221
sS'2000-01-01 00:03:27.892861'
p411
F0.716800017357
sS'2000-01-01 00:03:09.554540'
p412
F0.716800017357
sS'2000-01-01 00:03:15.470341'
p413
F0.716800017357
sS'2000-01-01 00:03:26.711485'
p414
F0.720800027847
sS'2000-01-01 00:03:11.624173'
p415
F0.716800017357
sS'2000-01-01 00:03:18.229557'
p416
F0.717600002289
sS'2000-01-01 00:03:24.047740'
p417
F0.72
sS'2000-01-01 00:03:25.230391'
p418
F0.72
sS'2000-01-01 00:03:25.919368'
p419
F0.716800017357
sS'2000-01-01 00:03:27.991078'
p420
F0.719200015068
sS'2000-01-01 00:03:15.273945'
p421
F0.716800017357
sS'2000-01-01 00:03:27.204424'
p422
F0.716800017357
sS'2000-01-01 00:03:12.807984'
p423
F0.716800017357
sS'2000-01-01 00:03:32.425273'
p424
F0.716800017357
sS'2000-01-01 00:03:14.781199'
p425
F0.715200004578
sS'2000-01-01 00:03:29.371362'
p426
F0.716800017357
sS'2000-01-01 00:03:08.963958'
p427
F0.716800017357
sS'2000-01-01 00:03:08.766505'
p428
F0.71599998951
sS'2000-01-01 00:03:31.638464'
p429
F0.716800017357
sS'2000-01-01 00:03:14.977586'
p430
F0.716800017357
sS'2000-01-01 00:03:26.017514'
p431
F0.72
sS'2000-01-01 00:03:29.961542'
p432
F0.716800017357
sS'2000-01-01 00:03:25.821199'
p433
F0.720800027847
sS'2000-01-01 00:03:12.708211'
p434
F0.71599998951
sS'2000-01-01 00:03:29.764997'
p435
F0.716800017357
sS'2000-01-01 00:03:27.302781'
p436
F0.719200015068
sS'2000-01-01 00:03:32.228934'
p437
F0.716800017357
sS'2000-01-01 00:03:32.524507'
p438
F0.717600002289
sS'2000-01-01 00:03:28.582162'
p439
F0.717600002289
sS'2000-01-01 00:03:15.865089'
p440
F0.715200004578
sS'2000-01-01 00:03:32.622582'
p441
F0.716800017357
sS'2000-01-01 00:03:17.244501'
p442
F0.716800017357
sS'2000-01-01 00:03:26.609640'
p443
F0.72
sS'2000-01-01 00:03:20.201228'
p444
F0.719200015068
sS'2000-01-01 00:03:27.696441'
p445
F0.719200015068
sS'2000-01-01 00:03:28.188360'
p446
F0.72
sS'2000-01-01 00:03:12.609210'
p447
F0.716800017357
sS'2000-01-01 00:03:30.453632'
p448
F0.716800017357
sS'2000-01-01 00:03:29.666883'
p449
F0.716800017357
sS'2000-01-01 00:03:13.692810'
p450
F0.716800017357
sS'2000-01-01 00:03:16.752436'
p451
F0.716800017357
sS'2000-01-01 00:03:16.258762'
p452
F0.716800017357
sS'2000-01-01 00:03:13.102570'
p453
F0.71599998951
sS'2000-01-01 00:03:24.343293'
p454
F0.72
sS'2000-01-01 00:03:33.410957'
p455
F0.717600002289
sS'2000-01-01 00:03:20.495588'
p456
F0.716800017357
sS'2000-01-01 00:03:15.963162'
p457
F0.716800017357
sS'2000-01-01 00:03:16.061367'
p458
F0.716800017357
sS'2000-01-01 00:03:09.062064'
p459
F0.716800017357
sS'2000-01-01 00:03:12.019052'
p460
F0.716800017357
sS'2000-01-01 00:03:31.440960'
p461
F0.71599998951
sS'2000-01-01 00:03:28.482854'
p462
F0.716800017357
sS'2000-01-01 00:03:18.623557'
p463
F0.715200004578
sS'2000-01-01 00:03:30.947877'
p464
F0.716800017357
sS'2000-01-01 00:03:14.681093'
p465
F0.717600002289
sS'2000-01-01 00:03:30.257357'
p466
F0.716800017357
sS'2000-01-01 00:03:26.908553'
p467
F0.719200015068
sS'2000-01-01 00:03:23.160523'
p468
F0.718399987221
sS'2000-01-01 00:03:25.033011'
p469
F0.720800027847
sS'2000-01-01 00:03:10.836196'
p470
F0.717600002289
sS'2000-01-01 00:03:27.006745'
p471
F0.72
sS'2000-01-01 00:03:08.666928'
p472
F0.71599998951
sS'2000-01-01 00:03:13.496334'
p473
F0.71599998951
sS'2000-01-01 00:03:15.666788'
p474
F0.716800017357
sS'2000-01-01 00:03:24.539685'
p475
F0.716800017357
sS'2000-01-01 00:03:23.554359'
p476
F0.716800017357
sS'2000-01-01 00:03:13.398265'
p477
F0.716800017357
sS'2000-01-01 00:03:16.356896'
p478
F0.716800017357
sS'2000-01-01 00:03:19.609966'
p479
F0.716800017357
sS'2000-01-01 00:03:27.400907'
p480
F0.719200015068
sS'2000-01-01 00:03:17.047084'
p481
F0.716800017357
sS'2000-01-01 00:03:11.131215'
p482
F0.716800017357
sS'2000-01-01 00:03:29.273218'
p483
F0.716800017357
sS'2000-01-01 00:03:17.834580'
p484
F0.716800017357
sS'2000-01-01 00:03:26.215145'
p485
F0.72
sS'2000-01-01 00:03:23.851224'
p486
F0.72
sS'2000-01-01 00:03:31.932957'
p487
F0.715200004578
sS'2000-01-01 00:03:19.905734'
p488
F0.716800017357
sS'2000-01-01 00:03:31.834857'
p489
F0.716800017357
sS'2000-01-01 00:03:08.865901'
p490
F0.716800017357
sS'2000-01-01 00:03:25.624830'
p491
F0.719200015068
sS'2000-01-01 00:03:13.989071'
p492
F0.716800017357
sS'2000-01-01 00:03:27.794697'
p493
F0.72
sS'2000-01-01 00:03:28.384825'
p494
F0.716800017357
sS'2000-01-01 00:03:28.976770'
p495
F0.716800017357
sS'2000-01-01 00:03:33.214747'
p496
F0.716800017357
sS'2000-01-01 00:03:18.327780'
p497
F0.71599998951
sS'2000-01-01 00:03:17.440697'
p498
F0.716800017357
sS'2000-01-01 00:03:22.567683'
p499
F0.72
sS'2000-01-01 00:03:27.105951'
p500
F0.716800017357
sS'2000-01-01 00:03:22.273256'
p501
F0.718399987221
sS'2000-01-01 00:03:14.383062'
p502
F0.71599998951
sS'2000-01-01 00:03:28.090221'
p503
F0.716800017357
sS'2000-01-01 00:03:26.313384'
p504
F0.72
sS'2000-01-01 00:03:13.890834'
p505
F0.717600002289
sS'2000-01-01 00:03:21.682621'
p506
F0.716800017357
sS'2000-01-01 00:03:22.864957'
p507
F0.72
sS'2000-01-01 00:03:17.636986'
p508
F0.716800017357
sS'2000-01-01 00:03:11.032512'
p509
F0.716800017357
sS'2000-01-01 00:03:18.425844'
p510
F0.716800017357
sS'2000-01-01 00:03:31.047072'
p511
F0.716800017357
sS'2000-01-01 00:03:11.822560'
p512
F0.717600002289
sS'2000-01-01 00:03:11.329247'
p513
F0.716800017357
sS'2000-01-01 00:03:12.906310'
p514
F0.716800017357
sS'2000-01-01 00:03:31.540286'
p515
F0.716800017357
sS'2000-01-01 00:03:29.863307'
p516
F0.716800017357
sS'2000-01-01 00:03:33.510105'
p517
F0.717600002289
sS'2000-01-01 00:03:13.004505'
p518
F0.716800017357
sS'2000-01-01 00:03:32.820166'
p519
F0.71599998951
sS'2000-01-01 00:03:23.949491'
p520
F0.719200015068
sS'2000-01-01 00:03:23.752386'
p521
F0.72
sS'2000-01-01 00:03:22.766719'
p522
F0.719200015068
sS'2000-01-01 00:03:25.525445'
p523
F0.714400019646
ssS'Accelerometer2'
p524
(dp525
S'2000-01-01 00:03:21.161855'
p526
(lp527
F-0.131034193368
aF-0.124138141501
aF-1.17241349714
asS'2000-01-01 00:03:21.950327'
p528
(lp529
F-0.124138141501
aF-0.131034193368
aF-1.17241349714
asS'2000-01-01 00:03:19.288609'
p530
(lp531
F-0.131034193368
aF-0.117241349714
aF-1.15862065348
asS'2000-01-01 00:03:29.048247'
p532
(lp533
F-0.144827776942
aF-0.137930985155
aF-1.19310313258
asS'2000-01-01 00:03:19.090200'
p534
(lp535
F-0.137930985155
aF-0.124138141501
aF-1.17931028892
asS'2000-01-01 00:03:23.034599'
p536
(lp537
F-0.117241349714
aF-0.103448506059
aF-1.15862065348
asS'2000-01-01 00:03:15.640008'
p538
(lp539
F-0.144827776942
aF-0.137930985155
aF-1.19310313258
asS'2000-01-01 00:03:23.725030'
p540
(lp541
F-0.137930985155
aF-0.124138141501
aF-1.15862065348
asS'2000-01-01 00:03:21.261994'
p542
(lp543
F-0.137930985155
aF-0.131034193368
aF-1.16551744527
asS'2000-01-01 00:03:24.119100'
p544
(lp545
F-0.117241349714
aF-0.103448506059
aF-1.16551744527
asS'2000-01-01 00:03:25.990855'
p546
(lp547
F-0.124138141501
aF-0.103448506059
aF-1.17241349714
asS'2000-01-01 00:03:24.908114'
p548
(lp549
F-0.137930985155
aF-0.117241349714
aF-1.17241349714
asS'2000-01-01 00:03:18.795645'
p550
(lp551
F-0.137930985155
aF-0.131034193368
aF-1.19310313258
asS'2000-01-01 00:03:20.964810'
p552
(lp553
F-0.131034193368
aF-0.131034193368
aF-1.18620708071
asS'2000-01-01 00:03:25.203721'
p554
(lp555
F-0.117241349714
aF-0.117241349714
aF-1.16551744527
asS'2000-01-01 00:03:17.708430'
p556
(lp557
F-0.137930985155
aF-0.137930985155
aF-1.18620708071
asS'2000-01-01 00:03:11.794638'
p558
(lp559
F-0.165517412383
aF-0.151723828809
aF-1.20689671615
asS'2000-01-01 00:03:09.724039'
p560
(lp561
F-0.151723828809
aF-0.137930985155
aF-1.19310313258
asS'2000-01-01 00:03:25.399835'
p562
(lp563
F-0.124138141501
aF-0.110344557927
aF-1.16551744527
asS'2000-01-01 00:03:27.866162'
p564
(lp565
F-0.131034193368
aF-0.117241349714
aF-1.16551744527
asS'2000-01-01 00:03:32.398632'
p566
(lp567
F-0.144827776942
aF-0.144827776942
aF-1.19310313258
asS'2000-01-01 00:03:17.020405'
p568
(lp569
F-0.165517412383
aF-0.137930985155
aF-1.19999992436
asS'2000-01-01 00:03:21.458427'
p570
(lp571
F-0.124138141501
aF-0.103448506059
aF-1.16551744527
asS'2000-01-01 00:03:30.328839'
p572
(lp573
F-0.151723828809
aF-0.137930985155
aF-1.19310313258
asS'2000-01-01 00:03:19.780760'
p574
(lp575
F-0.131034193368
aF-0.117241349714
aF-1.18620708071
asS'2000-01-01 00:03:28.456197'
p576
(lp577
F-0.151723828809
aF-0.137930985155
aF-1.19310313258
asS'2000-01-01 00:03:28.161598'
p578
(lp579
F-0.124138141501
aF-0.117241349714
aF-1.17931028892
asS'2000-01-01 00:03:10.907657'
p580
(lp581
F-0.151723828809
aF-0.137930985155
aF-1.17241349714
asS'2000-01-01 00:03:09.330349'
p582
(lp583
F-0.137930985155
aF-0.131034193368
aF-1.18620708071
asS'2000-01-01 00:03:28.950111'
p584
(lp585
F-0.151723828809
aF-0.137930985155
aF-1.19310313258
asS'2000-01-01 00:03:24.316637'
p586
(lp587
F-0.131034193368
aF-0.117241349714
aF-1.16551744527
asS'2000-01-01 00:03:21.852261'
p588
(lp589
F-0.117241349714
aF-0.0965517142723
aF-1.16551744527
asS'2000-01-01 00:03:18.893934'
p590
(lp591
F-0.137930985155
aF-0.131034193368
aF-1.17931028892
asS'2000-01-01 00:03:18.596389'
p592
(lp593
F-0.165517412383
aF-0.158620620596
aF-1.20689671615
asS'2000-01-01 00:03:32.891565'
p594
(lp595
F-0.151723828809
aF-0.144827776942
aF-1.19310313258
asS'2000-01-01 00:03:19.583169'
p596
(lp597
F-0.137930985155
aF-0.131034193368
aF-1.19310313258
asS'2000-01-01 00:03:24.711163'
p598
(lp599
F-0.144827776942
aF-0.131034193368
aF-1.15862065348
asS'2000-01-01 00:03:08.838100'
p600
(lp601
F-0.144827776942
aF-0.137930985155
aF-1.19999992436
asS'2000-01-01 00:03:31.512450'
p602
(lp603
F-0.144827776942
aF-0.137930985155
aF-1.19310313258
asS'2000-01-01 00:03:17.414002'
p604
(lp605
F-0.137930985155
aF-0.131034193368
aF-1.19310313258
asS'2000-01-01 00:03:27.472387'
p606
(lp607
F-0.110344557927
aF-0.103448506059
aF-1.15862065348
asS'2000-01-01 00:03:31.414271'
p608
(lp609
F-0.144827776942
aF-0.144827776942
aF-1.19310313258
asS'2000-01-01 00:03:21.556586'
p610
(lp611
F-0.137930985155
aF-0.124138141501
aF-1.17931028892
asS'2000-01-01 00:03:21.360106'
p612
(lp613
F-0.137930985155
aF-0.131034193368
aF-1.17241349714
asS'2000-01-01 00:03:20.768424'
p614
(lp615
F-0.131034193368
aF-0.117241349714
aF-1.17241349714
asS'2000-01-01 00:03:18.102978'
p616
(lp617
F-0.137930985155
aF-0.131034193368
aF-1.18620708071
asS'2000-01-01 00:03:20.668300'
p618
(lp619
F-0.117241349714
aF-0.110344557927
aF-1.16551744527
asS'2000-01-01 00:03:10.019750'
p620
(lp621
F-0.144827776942
aF-0.137930985155
aF-1.18620708071
asS'2000-01-01 00:03:16.132739'
p622
(lp623
F-0.151723828809
aF-0.137930985155
aF-1.19310313258
asS'2000-01-01 00:03:30.032936'
p624
(lp625
F-0.137930985155
aF-0.131034193368
aF-1.19310313258
asS'2000-01-01 00:03:18.695870'
p626
(lp627
F-0.144827776942
aF-0.131034193368
aF-1.19310313258
asS'2000-01-01 00:03:29.738265'
p628
(lp629
F-0.144827776942
aF-0.137930985155
aF-1.19310313258
asS'2000-01-01 00:03:19.977195'
p630
(lp631
F-0.137930985155
aF-0.117241349714
aF-1.17241349714
asS'2000-01-01 00:03:10.512524'
p632
(lp633
F-0.151723828809
aF-0.137930985155
aF-1.19999992436
asS'2000-01-01 00:03:34.073528'
p634
(lp635
F-0.165517412383
aF-0.158620620596
aF-1.20689671615
asS'2000-01-01 00:03:10.413538'
p636
(lp637
F-0.151723828809
aF-0.137930985155
aF-1.18620708071
asS'2000-01-01 00:03:26.385020'
p638
(lp639
F-0.117241349714
aF-0.117241349714
aF-1.17241349714
asS'2000-01-01 00:03:31.611767'
p640
(lp641
F-0.158620620596
aF-0.137930985155
aF-1.19310313258
asS'2000-01-01 00:03:23.331348'
p642
(lp643
F-0.131034193368
aF-0.124138141501
aF-1.16551744527
asS'2000-01-01 00:03:26.483345'
p644
(lp645
F-0.124138141501
aF-0.117241349714
aF-1.16551744527
asS'2000-01-01 00:03:29.934777'
p646
(lp647
F-0.158620620596
aF-0.137930985155
aF-1.18620708071
asS'2000-01-01 00:03:29.836588'
p648
(lp649
F-0.165517412383
aF-0.137930985155
aF-1.19310313258
asS'2000-01-01 00:03:24.218480'
p650
(lp651
F-0.124138141501
aF-0.103448506059
aF-1.15862065348
asS'2000-01-01 00:03:16.824032'
p652
(lp653
F-0.144827776942
aF-0.137930985155
aF-1.19310313258
asS'2000-01-01 00:03:26.979954'
p654
(lp655
F-0.137930985155
aF-0.124138141501
aF-1.17931028892
asS'2000-01-01 00:03:33.188065'
p656
(lp657
F-0.151723828809
aF-0.137930985155
aF-1.19310313258
asS'2000-01-01 00:03:11.005810'
p658
(lp659
F-0.144827776942
aF-0.131034193368
aF-1.19310313258
asS'2000-01-01 00:03:18.004848'
p660
(lp661
F-0.144827776942
aF-0.151723828809
aF-1.21379276802
asS'2000-01-01 00:03:22.739759'
p662
(lp663
F-0.131034193368
aF-0.117241349714
aF-1.16551744527
asS'2000-01-01 00:03:15.246071'
p664
(lp665
F-0.144827776942
aF-0.137930985155
aF-1.19310313258
asS'2000-01-01 00:03:14.753153'
p666
(lp667
F-0.144827776942
aF-0.131034193368
aF-1.19310313258
asS'2000-01-01 00:03:33.482314'
p668
(lp669
F-0.137930985155
aF-0.137930985155
aF-1.19310313258
asS'2000-01-01 00:03:28.358109'
p670
(lp671
F-0.117241349714
aF-0.137930985155
aF-1.19310313258
asS'2000-01-01 00:03:30.624246'
p672
(lp673
F-0.151723828809
aF-0.137930985155
aF-1.18620708071
asS'2000-01-01 00:03:13.567850'
p674
(lp675
F-0.144827776942
aF-0.137930985155
aF-1.18620708071
asS'2000-01-01 00:03:09.822407'
p676
(lp677
F-0.144827776942
aF-0.137930985155
aF-1.19310313258
asS'2000-01-01 00:03:27.964290'
p678
(lp679
F-0.131034193368
aF-0.117241349714
aF-1.17241349714
asS'2000-01-01 00:03:25.596920'
p680
(lp681
F-0.117241349714
aF-0.117241349714
aF-1.16551744527
asS'2000-01-01 00:03:14.454511'
p682
(lp683
F-0.144827776942
aF-0.131034193368
aF-1.19310313258
asS'2000-01-01 00:03:32.694446'
p684
(lp685
F-0.151723828809
aF-0.137930985155
aF-1.18620708071
asS'2000-01-01 00:03:13.764660'
p686
(lp687
F-0.165517412383
aF-0.151723828809
aF-1.21379276802
asS'2000-01-01 00:03:22.146465'
p688
(lp689
F-0.131034193368
aF-0.124138141501
aF-1.17931028892
asS'2000-01-01 00:03:12.484317'
p690
(lp691
F-0.144827776942
aF-0.137930985155
aF-1.19310313258
asS'2000-01-01 00:03:28.062444'
p692
(lp693
F-0.103448506059
aF-0.0965517142723
aF-1.15862065348
asS'2000-01-01 00:03:27.177580'
p694
(lp695
F-0.124138141501
aF-0.110344557927
aF-1.18620708071
asS'2000-01-01 00:03:14.356399'
p696
(lp697
F-0.151723828809
aF-0.137930985155
aF-1.19310313258
asS'2000-01-01 00:03:32.496723'
p698
(lp699
F-0.144827776942
aF-0.131034193368
aF-1.19310313258
asS'2000-01-01 00:03:27.276048'
p700
(lp701
F-0.117241349714
aF-0.0965517142723
aF-1.15862065348
asS'2000-01-01 00:03:25.104439'
p702
(lp703
F-0.117241349714
aF-0.103448506059
aF-1.16551744527
asS'2000-01-01 00:03:13.469667'
p704
(lp705
F-0.144827776942
aF-0.137930985155
aF-1.19310313258
asS'2000-01-01 00:03:10.610704'
p706
(lp707
F-0.17241346425
aF-0.131034193368
aF-1.18620708071
asS'2000-01-01 00:03:11.400759'
p708
(lp709
F-0.151723828809
aF-0.137930985155
aF-1.19310313258
asS'2000-01-01 00:03:31.709910'
p710
(lp711
F-0.144827776942
aF-0.137930985155
aF-1.19310313258
asS'2000-01-01 00:03:23.922813'
p712
(lp713
F-0.137930985155
aF-0.117241349714
aF-1.16551744527
asS'2000-01-01 00:03:11.597122'
p714
(lp715
F-0.151723828809
aF-0.151723828809
aF-1.19999992436
asS'2000-01-01 00:03:22.344693'
p716
(lp717
F-0.158620620596
aF-0.144827776942
aF-1.19310313258
asS'2000-01-01 00:03:23.232312'
p718
(lp719
F-0.117241349714
aF-0.103448506059
aF-1.16551744527
asS'2000-01-01 00:03:20.173293'
p720
(lp721
F-0.151723828809
aF-0.137930985155
aF-1.19999992436
asS'2000-01-01 00:03:11.992396'
p722
(lp723
F-0.144827776942
aF-0.137930985155
aF-1.19310313258
asS'2000-01-01 00:03:10.216107'
p724
(lp725
F-0.151723828809
aF-0.131034193368
aF-1.18620708071
asS'2000-01-01 00:03:31.217624'
p726
(lp727
F-0.144827776942
aF-0.131034193368
aF-1.19999992436
asS'2000-01-01 00:03:13.864165'
p728
(lp729
F-0.144827776942
aF-0.137930985155
aF-1.17241349714
asS'2000-01-01 00:03:08.739514'
p730
(lp731
F-0.151723828809
aF-0.137930985155
aF-1.19999992436
asS'2000-01-01 00:03:26.783677'
p732
(lp733
F-0.137930985155
aF-0.117241349714
aF-1.18620708071
asS'2000-01-01 00:03:14.852704'
p734
(lp735
F-0.165517412383
aF-0.151723828809
aF-1.19310313258
asS'2000-01-01 00:03:30.230675'
p736
(lp737
F-0.144827776942
aF-0.137930985155
aF-1.19310313258
asS'2000-01-01 00:03:21.654772'
p738
(lp739
F-0.124138141501
aF-0.110344557927
aF-1.16551744527
asS'2000-01-01 00:03:29.442792'
p740
(lp741
F-0.144827776942
aF-0.137930985155
aF-1.18620708071
asS'2000-01-01 00:03:33.089845'
p742
(lp743
F-0.151723828809
aF-0.144827776942
aF-1.19310313258
asS'2000-01-01 00:03:22.442824'
p744
(lp745
F-0.124138141501
aF-0.103448506059
aF-1.16551744527
asS'2000-01-01 00:03:16.428741'
p746
(lp747
F-0.151723828809
aF-0.137930985155
aF-1.18620708071
asS'2000-01-01 00:03:20.075218'
p748
(lp749
F-0.131034193368
aF-0.117241349714
aF-1.16551744527
asS'2000-01-01 00:03:11.695623'
p750
(lp751
F-0.151723828809
aF-0.137930985155
aF-1.19310313258
asS'2000-01-01 00:03:13.272281'
p752
(lp753
F-0.137930985155
aF-0.131034193368
aF-1.18620708071
asS'2000-01-01 00:03:27.570571'
p754
(lp755
F-0.137930985155
aF-0.131034193368
aF-1.18620708071
asS'2000-01-01 00:03:16.724074'
p756
(lp757
F-0.137930985155
aF-0.131034193368
aF-1.18620708071
asS'2000-01-01 00:03:29.246474'
p758
(lp759
F-0.144827776942
aF-0.137930985155
aF-1.19310313258
asS'2000-01-01 00:03:10.709813'
p760
(lp761
F-0.144827776942
aF-0.137930985155
aF-1.19999992436
asS'2000-01-01 00:03:27.669764'
p762
(lp763
F-0.144827776942
aF-0.131034193368
aF-1.17931028892
asS'2000-01-01 00:03:15.147147'
p764
(lp765
F-0.158620620596
aF-0.144827776942
aF-1.19999992436
asS'2000-01-01 00:03:22.639155'
p766
(lp767
F-0.117241349714
aF-0.103448506059
aF-1.17241349714
asS'2000-01-01 00:03:19.485062'
p768
(lp769
F-0.137930985155
aF-0.103448506059
aF-1.17241349714
asS'2000-01-01 00:03:11.104508'
p770
(lp771
F-0.144827776942
aF-0.137930985155
aF-1.18620708071
asS'2000-01-01 00:03:13.371568'
p772
(lp773
F-0.151723828809
aF-0.137930985155
aF-1.18620708071
asS'2000-01-01 00:03:17.905981'
p774
(lp775
F-0.144827776942
aF-0.137930985155
aF-1.19999992436
asS'2000-01-01 00:03:09.133729'
p776
(lp777
F-0.144827776942
aF-0.137930985155
aF-1.19310313258
asS'2000-01-01 00:03:18.497215'
p778
(lp779
F-0.137930985155
aF-0.131034193368
aF-1.17931028892
asS'2000-01-01 00:03:28.851917'
p780
(lp781
F-0.144827776942
aF-0.137930985155
aF-1.18620708071
asS'2000-01-01 00:03:14.060441'
p782
(lp783
F-0.151723828809
aF-0.137930985155
aF-1.19999992436
asS'2000-01-01 00:03:16.330271'
p784
(lp785
F-0.151723828809
aF-0.137930985155
aF-1.17931028892
asS'2000-01-01 00:03:18.301063'
p786
(lp787
F-0.158620620596
aF-0.137930985155
aF-1.17241349714
asS'2000-01-01 00:03:13.174098'
p788
(lp789
F-0.144827776942
aF-0.131034193368
aF-1.19310313258
asS'2000-01-01 00:03:14.552638'
p790
(lp791
F-0.151723828809
aF-0.137930985155
aF-1.19999992436
asS'2000-01-01 00:03:32.595943'
p792
(lp793
F-0.151723828809
aF-0.137930985155
aF-1.19310313258
asS'2000-01-01 00:03:20.370819'
p794
(lp795
F-0.124138141501
aF-0.117241349714
aF-1.16551744527
asS'2000-01-01 00:03:24.414767'
p796
(lp797
F-0.117241349714
aF-0.137930985155
aF-1.19310313258
asS'2000-01-01 00:03:10.808353'
p798
(lp799
F-0.137930985155
aF-0.137930985155
aF-1.19310313258
asS'2000-01-01 00:03:25.794400'
p800
(lp801
F-0.117241349714
aF-0.110344557927
aF-1.16551744527
asS'2000-01-01 00:03:23.824459'
p802
(lp803
F-0.137930985155
aF-0.124138141501
aF-1.17931028892
asS'2000-01-01 00:03:33.384204'
p804
(lp805
F-0.151723828809
aF-0.137930985155
aF-1.19310313258
asS'2000-01-01 00:03:15.541737'
p806
(lp807
F-0.144827776942
aF-0.131034193368
aF-1.19310313258
asS'2000-01-01 00:03:24.512922'
p808
(lp809
F-0.137930985155
aF-0.124138141501
aF-1.17241349714
asS'2000-01-01 00:03:22.540979'
p810
(lp811
F-0.137930985155
aF-0.124138141501
aF-1.19310313258
asS'2000-01-01 00:03:19.681396'
p812
(lp813
F-0.124138141501
aF-0.117241349714
aF-1.16551744527
asS'2000-01-01 00:03:14.950919'
p814
(lp815
F-0.144827776942
aF-0.137930985155
aF-1.19310313258
asS'2000-01-01 00:03:17.118552'
p816
(lp817
F-0.151723828809
aF-0.137930985155
aF-1.18620708071
asS'2000-01-01 00:03:28.259952'
p818
(lp819
F-0.117241349714
aF-0.0965517142723
aF-1.15862065348
asS'2000-01-01 00:03:15.345430'
p820
(lp821
F-0.151723828809
aF-0.137930985155
aF-1.19310313258
asS'2000-01-01 00:03:32.202232'
p822
(lp823
F-0.144827776942
aF-0.137930985155
aF-1.19310313258
asS'2000-01-01 00:03:12.879566'
p824
(lp825
F-0.151723828809
aF-0.137930985155
aF-1.17931028892
asS'2000-01-01 00:03:25.498740'
p826
(lp827
F-0.151723828809
aF-0.137930985155
aF-1.19310313258
asS'2000-01-01 00:03:13.666167'
p828
(lp829
F-0.151723828809
aF-0.137930985155
aF-1.19310313258
asS'2000-01-01 00:03:30.132164'
p830
(lp831
F-0.151723828809
aF-0.144827776942
aF-1.18620708071
asS'2000-01-01 00:03:22.936451'
p832
(lp833
F-0.124138141501
aF-0.124138141501
aF-1.17241349714
asS'2000-01-01 00:03:32.793434'
p834
(lp835
F-0.151723828809
aF-0.137930985155
aF-1.18620708071
asS'2000-01-01 00:03:10.117843'
p836
(lp837
F-0.144827776942
aF-0.137930985155
aF-1.19310313258
asS'2000-01-01 00:03:16.526875'
p838
(lp839
F-0.151723828809
aF-0.137930985155
aF-1.19310313258
asS'2000-01-01 00:03:33.974135'
p840
(lp841
F-0.137930985155
aF-0.137930985155
aF-1.19310313258
asS'2000-01-01 00:03:30.723370'
p842
(lp843
F-0.151723828809
aF-0.137930985155
aF-1.19310313258
asS'2000-01-01 00:03:09.035428'
p844
(lp845
F-0.144827776942
aF-0.137930985155
aF-1.19310313258
asS'2000-01-01 00:03:15.738223'
p846
(lp847
F-0.144827776942
aF-0.131034193368
aF-1.18620708071
asS'2000-01-01 00:03:13.962322'
p848
(lp849
F-0.151723828809
aF-0.137930985155
aF-1.19310313258
asS'2000-01-01 00:03:14.654179'
p850
(lp851
F-0.151723828809
aF-0.137930985155
aF-1.19310313258
asS'2000-01-01 00:03:31.019273'
p852
(lp853
F-0.144827776942
aF-0.137930985155
aF-1.19999992436
asS'2000-01-01 00:03:17.512184'
p854
(lp855
F-0.151723828809
aF-0.137930985155
aF-1.19310313258
asS'2000-01-01 00:03:19.879068'
p856
(lp857
F-0.117241349714
aF-0.103448506059
aF-1.16551744527
asS'2000-01-01 00:03:18.201670'
p858
(lp859
F-0.131034193368
aF-0.124138141501
aF-1.17931028892
asS'2000-01-01 00:03:20.866633'
p860
(lp861
F-0.117241349714
aF-0.103448506059
aF-1.16551744527
asS'2000-01-01 00:03:31.808093'
p862
(lp863
F-0.151723828809
aF-0.137930985155
aF-1.19310313258
asS'2000-01-01 00:03:11.301437'
p864
(lp865
F-0.144827776942
aF-0.137930985155
aF-1.19310313258
asS'2000-01-01 00:03:22.838259'
p866
(lp867
F-0.117241349714
aF-0.110344557927
aF-1.17241349714
asS'2000-01-01 00:03:12.188734'
p868
(lp869
F-0.144827776942
aF-0.137930985155
aF-1.19310313258
asS'2000-01-01 00:03:09.232234'
p870
(lp871
F-0.151723828809
aF-0.137930985155
aF-1.19310313258
asS'2000-01-01 00:03:28.753588'
p872
(lp873
F-0.165517412383
aF-0.151723828809
aF-1.20689671615
asS'2000-01-01 00:03:14.257026'
p874
(lp875
F-0.131034193368
aF-0.117241349714
aF-1.17241349714
asS'2000-01-01 00:03:09.921610'
p876
(lp877
F-0.151723828809
aF-0.144827776942
aF-1.19310313258
asS'2000-01-01 00:03:10.314333'
p878
(lp879
F-0.151723828809
aF-0.137930985155
aF-1.19310313258
asS'2000-01-01 00:03:22.246507'
p880
(lp881
F-0.117241349714
aF-0.103448506059
aF-1.16551744527
asS'2000-01-01 00:03:12.780105'
p882
(lp883
F-0.144827776942
aF-0.137930985155
aF-1.19999992436
asS'2000-01-01 00:03:33.876060'
p884
(lp885
F-0.144827776942
aF-0.144827776942
aF-1.19310313258
asS'2000-01-01 00:03:32.004492'
p886
(lp887
F-0.144827776942
aF-0.137930985155
aF-1.19310313258
asS'2000-01-01 00:03:12.681484'
p888
(lp889
F-0.165517412383
aF-0.151723828809
aF-1.20689671615
asS'2000-01-01 00:03:23.132744'
p890
(lp891
F-0.137930985155
aF-0.117241349714
aF-1.16551744527
asS'2000-01-01 00:03:12.977694'
p892
(lp893
F-0.151723828809
aF-0.137930985155
aF-1.19310313258
asS'2000-01-01 00:03:33.286099'
p894
(lp895
F-0.151723828809
aF-0.137930985155
aF-1.19310313258
asS'2000-01-01 00:03:34.172512'
p896
(lp897
F-0.151723828809
aF-0.137930985155
aF-1.18620708071
asS'2000-01-01 00:03:20.272621'
p898
(lp899
F-0.117241349714
aF-0.110344557927
aF-1.15862065348
asS'2000-01-01 00:03:15.443615'
p900
(lp901
F-0.137930985155
aF-0.124138141501
aF-1.18620708071
asS'2000-01-01 00:03:30.822899'
p902
(lp903
F-0.151723828809
aF-0.131034193368
aF-1.18620708071
asS'2000-01-01 00:03:21.754166'
p904
(lp905
F-0.137930985155
aF-0.137930985155
aF-1.17241349714
asS'2000-01-01 00:03:29.640117'
p906
(lp907
F-0.151723828809
aF-0.137930985155
aF-1.19310313258
asS'2000-01-01 00:03:24.809894'
p908
(lp909
F-0.117241349714
aF-0.117241349714
aF-1.16551744527
asS'2000-01-01 00:03:32.300492'
p910
(lp911
F-0.151723828809
aF-0.137930985155
aF-1.19310313258
asS'2000-01-01 00:03:30.426916'
p912
(lp913
F-0.144827776942
aF-0.131034193368
aF-1.18620708071
asS'2000-01-01 00:03:33.777838'
p914
(lp915
F-0.144827776942
aF-0.137930985155
aF-1.19310313258
asS'2000-01-01 00:03:30.525085'
p916
(lp917
F-0.144827776942
aF-0.137930985155
aF-1.19310313258
asS'2000-01-01 00:03:08.937309'
p918
(lp919
F-0.144827776942
aF-0.137930985155
aF-1.19310313258
asS'2000-01-01 00:03:24.020954'
p920
(lp921
F-0.117241349714
aF-0.110344557927
aF-1.17931028892
asS'2000-01-01 00:03:30.921114'
p922
(lp923
F-0.158620620596
aF-0.137930985155
aF-1.19310313258
asS'2000-01-01 00:03:26.684478'
p924
(lp925
F-0.137930985155
aF-0.124138141501
aF-1.15172386169
asS'2000-01-01 00:03:11.499002'
p926
(lp927
F-0.144827776942
aF-0.144827776942
aF-1.18620708071
asS'2000-01-01 00:03:25.301752'
p928
(lp929
F-0.124138141501
aF-0.117241349714
aF-1.17241349714
asS'2000-01-01 00:03:26.881887'
p930
(lp931
F-0.131034193368
aF-0.103448506059
aF-1.16551744527
asS'2000-01-01 00:03:20.468932'
p932
(lp933
F-0.137930985155
aF-0.110344557927
aF-1.16551744527
asS'2000-01-01 00:03:20.567069'
p934
(lp935
F-0.124138141501
aF-0.117241349714
aF-1.17241349714
asS'2000-01-01 00:03:28.554336'
p936
(lp937
F-0.137930985155
aF-0.137930985155
aF-1.19310313258
asS'2000-01-01 00:03:32.103776'
p938
(lp939
F-0.144827776942
aF-0.137930985155
aF-1.18620708071
asS'2000-01-01 00:03:12.090531'
p940
(lp941
F-0.158620620596
aF-0.124138141501
aF-1.19310313258
asS'2000-01-01 00:03:16.625135'
p942
(lp943
F-0.144827776942
aF-0.137930985155
aF-1.17931028892
asS'2000-01-01 00:03:15.936484'
p944
(lp945
F-0.151723828809
aF-0.137930985155
aF-1.19310313258
asS'2000-01-01 00:03:17.610306'
p946
(lp947
F-0.151723828809
aF-0.137930985155
aF-1.19310313258
asS'2000-01-01 00:03:09.527839'
p948
(lp949
F-0.144827776942
aF-0.137930985155
aF-1.19310313258
asS'2000-01-01 00:03:16.922174'
p950
(lp951
F-0.151723828809
aF-0.137930985155
aF-1.18620708071
asS'2000-01-01 00:03:22.048356'
p952
(lp953
F-0.117241349714
aF-0.103448506059
aF-1.16551744527
asS'2000-01-01 00:03:27.767967'
p954
(lp955
F-0.137930985155
aF-0.117241349714
aF-1.18620708071
asS'2000-01-01 00:03:33.581485'
p956
(lp957
F-0.151723828809
aF-0.137930985155
aF-1.18620708071
asS'2000-01-01 00:03:09.429595'
p958
(lp959
F-0.151723828809
aF-0.137930985155
aF-1.20689671615
asS'2000-01-01 00:03:31.315866'
p960
(lp961
F-0.158620620596
aF-0.137930985155
aF-1.19310313258
asS'2000-01-01 00:03:17.807825'
p962
(lp963
F-0.144827776942
aF-0.131034193368
aF-1.19310313258
asS'2000-01-01 00:03:23.429560'
p964
(lp965
F-0.158620620596
aF-0.117241349714
aF-1.16551744527
asS'2000-01-01 00:03:11.894072'
p966
(lp967
F-0.151723828809
aF-0.144827776942
aF-1.18620708071
asS'2000-01-01 00:03:12.286981'
p968
(lp969
F-0.137930985155
aF-0.131034193368
aF-1.19310313258
asS'2000-01-01 00:03:26.286613'
p970
(lp971
F-0.124138141501
aF-0.110344557927
aF-1.17241349714
asS'2000-01-01 00:03:14.158495'
p972
(lp973
F-0.151723828809
aF-0.137930985155
aF-1.19310313258
asS'2000-01-01 00:03:26.088880'
p974
(lp975
F-0.117241349714
aF-0.103448506059
aF-1.15172386169
asS'2000-01-01 00:03:26.581503'
p976
(lp977
F-0.144827776942
aF-0.137930985155
aF-1.19310313258
asS'2000-01-01 00:03:25.696236'
p978
(lp979
F-0.144827776942
aF-0.137930985155
aF-1.16551744527
asS'2000-01-01 00:03:21.062977'
p980
(lp981
F-0.117241349714
aF-0.103448506059
aF-1.17241349714
asS'2000-01-01 00:03:26.188353'
p982
(lp983
F-0.117241349714
aF-0.0965517142723
aF-1.16551744527
asS'2000-01-01 00:03:19.189136'
p984
(lp985
F-0.131034193368
aF-0.124138141501
aF-1.18620708071
asS'2000-01-01 00:03:09.625926'
p986
(lp987
F-0.144827776942
aF-0.137930985155
aF-1.18620708071
asS'2000-01-01 00:03:25.006330'
p988
(lp989
F-0.117241349714
aF-0.110344557927
aF-1.16551744527
asS'2000-01-01 00:03:27.078100'
p990
(lp991
F-0.110344557927
aF-0.0965517142723
aF-1.15172386169
asS'2000-01-01 00:03:27.374167'
p992
(lp993
F-0.124138141501
aF-0.124138141501
aF-1.17931028892
asS'2000-01-01 00:03:32.990567'
p994
(lp995
F-0.144827776942
aF-0.131034193368
aF-1.19310313258
asS'2000-01-01 00:03:31.906245'
p996
(lp997
F-0.144827776942
aF-0.137930985155
aF-1.19310313258
asS'2000-01-01 00:03:23.527668'
p998
(lp999
F-0.137930985155
aF-0.131034193368
aF-1.18620708071
asS'2000-01-01 00:03:18.992093'
p1000
(lp1001
F-0.131034193368
aF-0.124138141501
aF-1.18620708071
asS'2000-01-01 00:03:17.216716'
p1002
(lp1003
F-0.137930985155
aF-0.137930985155
aF-1.18620708071
asS'2000-01-01 00:03:17.315874'
p1004
(lp1005
F-0.151723828809
aF-0.137930985155
aF-1.18620708071
asS'2000-01-01 00:03:23.625717'
p1006
(lp1007
F-0.124138141501
aF-0.117241349714
aF-1.16551744527
asS'2000-01-01 00:03:11.203101'
p1008
(lp1009
F-0.144827776942
aF-0.137930985155
aF-1.19999992436
asS'2000-01-01 00:03:18.399143'
p1010
(lp1011
F-0.137930985155
aF-0.131034193368
aF-1.18620708071
asS'2000-01-01 00:03:16.230931'
p1012
(lp1013
F-0.151723828809
aF-0.137930985155
aF-1.19310313258
asS'2000-01-01 00:03:24.611075'
p1014
(lp1015
F-0.124138141501
aF-0.110344557927
aF-1.16551744527
asS'2000-01-01 00:03:12.386180'
p1016
(lp1017
F-0.151723828809
aF-0.137930985155
aF-1.19310313258
asS'2000-01-01 00:03:33.679624'
p1018
(lp1019
F-0.151723828809
aF-0.131034193368
aF-1.19310313258
asS'2000-01-01 00:03:12.582516'
p1020
(lp1021
F-0.144827776942
aF-0.137930985155
aF-1.19310313258
asS'2000-01-01 00:03:29.344686'
p1022
(lp1023
F-0.144827776942
aF-0.137930985155
aF-1.19310313258
asS'2000-01-01 00:03:16.034598'
p1024
(lp1025
F-0.144827776942
aF-0.131034193368
aF-1.18620708071
asS'2000-01-01 00:03:31.118869'
p1026
(lp1027
F-0.151723828809
aF-0.137930985155
aF-1.17931028892
asS'2000-01-01 00:03:25.892713'
p1028
(lp1029
F-0.151723828809
aF-0.117241349714
aF-1.16551744527
asS'2000-01-01 00:03:13.075912'
p1030
(lp1031
F-0.144827776942
aF-0.137930985155
aF-1.17931028892
asS'2000-01-01 00:03:29.148148'
p1032
(lp1033
F-0.151723828809
aF-0.137930985155
aF-1.19310313258
asS'2000-01-01 00:03:29.540958'
p1034
(lp1035
F-0.144827776942
aF-0.137930985155
aF-1.19310313258
asS'2000-01-01 00:03:19.386909'
p1036
(lp1037
F-0.131034193368
aF-0.117241349714
aF-1.19310313258
asS'2000-01-01 00:03:28.653503'
p1038
(lp1039
F-0.151723828809
aF-0.137930985155
aF-1.19310313258
asS'2000-01-01 00:03:15.049055'
p1040
(lp1041
F-0.144827776942
aF-0.131034193368
aF-1.18620708071
asS'2000-01-01 00:03:15.838371'
p1042
(lp1043
F-0.144827776942
aF-0.137930985155
aF-1.19310313258
assS'HallEffectSensor3'
p1044
(dp1045
S'2000-01-01 00:03:11.941339'
p1046
(lp1047
F3606.74305573
aF21.940776589
asS'2000-01-01 00:03:13.025016'
p1048
(lp1049
F3719.02469725
aF22.6238156559
asS'2000-01-01 00:03:13.418743'
p1050
(lp1051
F3748.02681469
aF22.8002432444
asS'2000-01-01 00:03:27.618856'
p1052
(lp1053
F937.719613912
aF5.70439763356
asS'2000-01-01 00:03:17.264973'
p1054
(lp1055
F3693.60256083
aF22.4691660436
asS'2000-01-01 00:03:15.687276'
p1056
(lp1057
F3790.16013072
aF23.0565514038
asS'2000-01-01 00:03:32.742124'
p1058
(lp1059
F1076.29903389
aF6.5474130762
asS'2000-01-01 00:03:31.658944'
p1060
(lp1061
F656.867409261
aF3.99589902926
asS'2000-01-01 00:03:30.573359'
p1062
(lp1063
F228.056357645
aF1.38732743516
asS'2000-01-01 00:03:26.630133'
p1064
(lp1065
F1313.29652567
aF7.98913180664
asS'2000-01-01 00:03:21.899439'
p1066
(lp1067
F2850.54786509
aF17.3406402668
asS'2000-01-01 00:03:30.277923'
p1068
(lp1069
F110.613499631
aF0.67289131652
asS'2000-01-01 00:03:19.237596'
p1070
(lp1071
F3431.93114665
aF20.8773492855
asS'2000-01-01 00:03:17.657476'
p1072
(lp1073
F3653.7915519
aF22.2269850955
asS'2000-01-01 00:03:32.052798'
p1074
(lp1075
F810.633990991
aF4.93130201319
asS'2000-01-01 00:03:23.969981'
p1076
(lp1077
F2243.21013026
aF13.6460434108
asS'2000-01-01 00:03:10.460807'
p1078
(lp1079
F3378.7295808
aF20.5537100208
asS'2000-01-01 00:03:09.575022'
p1080
(lp1081
F3203.12722104
aF19.4854741957
asS'2000-01-01 00:03:16.773040'
p1082
(lp1083
F3734.68027635
aF22.7190527045
asS'2000-01-01 00:03:26.037993'
p1084
(lp1085
F1531.74553306
aF9.31801517679
asS'2000-01-01 00:03:24.068217'
p1086
(lp1087
F2211.53876793
aF13.4533780963
asS'2000-01-01 00:03:22.095582'
p1088
(lp1089
F2798.33654935
aF17.0230249567
asS'2000-01-01 00:03:29.883784'
p1090
(lp1091
F46.2122441713
aF0.281121363339
asS'2000-01-01 00:03:30.474109'
p1092
(lp1093
F188.631229517
aF1.14749390256
asS'2000-01-01 00:03:19.926288'
p1094
(lp1095
F3305.44893699
aF20.1079243883
asS'2000-01-01 00:03:13.615138'
p1096
(lp1097
F3760.11479475
aF22.8737776397
asS'2000-01-01 00:03:29.096602'
p1098
(lp1099
F358.926832238
aF2.18344731417
asS'2000-01-01 00:03:12.926797'
p1100
(lp1101
F3710.8022867
aF22.5737965473
asS'2000-01-01 00:03:14.107549'
p1102
(lp1103
F3783.42006949
aF23.01554982
asS'2000-01-01 00:03:11.448013'
p1104
(lp1105
F3540.15094481
aF21.5356790797
asS'2000-01-01 00:03:15.983646'
p1106
(lp1107
F3779.85459988
aF22.9938601207
asS'2000-01-01 00:03:32.347631'
p1108
(lp1109
F924.853574893
aF5.62613009873
asS'2000-01-01 00:03:14.801725'
p1110
(lp1111
F3799.18160435
aF23.1114314256
asS'2000-01-01 00:03:20.516146'
p1112
(lp1113
F3183.42580879
aF19.3656252688
asS'2000-01-01 00:03:33.825096'
p1114
(lp1115
F1481.79119162
aF9.01412964121
asS'2000-01-01 00:03:25.645321'
p1116
(lp1117
F1673.41247519
aF10.1798128372
asS'2000-01-01 00:03:13.221323'
p1118
(lp1119
F3734.27840218
aF22.7166079971
asS'2000-01-01 00:03:24.955390'
p1120
(lp1121
F1915.324614
aF11.6514286717
asS'2000-01-01 00:03:29.687365'
p1122
(lp1123
F124.353992428
aF0.756478386085
asS'2000-01-01 00:03:16.969386'
p1124
(lp1125
F3719.46779058
aF22.6265111104
asS'2000-01-01 00:03:18.544409'
p1126
(lp1127
F3541.21864523
aF21.5421741852
asS'2000-01-01 00:03:23.574841'
p1128
(lp1129
F2368.17359948
aF14.4062294062
asS'2000-01-01 00:03:12.433445'
p1130
(lp1131
F3663.58289935
aF22.2865484643
asS'2000-01-01 00:03:15.392568'
p1132
(lp1133
F3796.78810848
aF23.096871154
asS'2000-01-01 00:03:23.773002'
p1134
(lp1135
F2305.97620002
aF14.0278660948
asS'2000-01-01 00:03:26.235652'
p1136
(lp1137
F1459.43948911
aF8.87815829431
asS'2000-01-01 00:03:25.348908'
p1138
(lp1139
F1778.48811793
aF10.8190158985
asS'2000-01-01 00:03:10.066953'
p1140
(lp1141
F3304.15234699
aF20.1000368868
asS'2000-01-01 00:03:17.559381'
p1142
(lp1143
F3664.3226315
aF22.2910484516
asS'2000-01-01 00:03:24.363842'
p1144
(lp1145
F2114.8308521
aF12.8650781418
asS'2000-01-01 00:03:12.828577'
p1146
(lp1147
F3702.18746612
aF22.5213903041
asS'2000-01-01 00:03:28.602635'
p1148
(lp1149
F554.047474259
aF3.37041803771
asS'2000-01-01 00:03:13.813110'
p1150
(lp1151
F3770.69050611
aF22.9381125028
asS'2000-01-01 00:03:15.786571'
p1152
(lp1153
F3787.11356674
aF23.0380183453
asS'2000-01-01 00:03:26.432344'
p1154
(lp1155
F1386.86719916
aF8.43668176668
asS'2000-01-01 00:03:14.403544'
p1156
(lp1157
F3792.59189498
aF23.0713444721
asS'2000-01-01 00:03:11.546149'
p1158
(lp1159
F3554.15674597
aF21.6208800906
asS'2000-01-01 00:03:10.856686'
p1160
(lp1161
F3447.90033453
aF20.9744940996
asS'2000-01-01 00:03:12.629809'
p1162
(lp1163
F3683.56408311
aF22.4080993156
asS'2000-01-01 00:03:32.840662'
p1164
(lp1165
F1113.83262145
aF6.77573986479
asS'2000-01-01 00:03:11.644662'
p1166
(lp1167
F3567.83869549
aF21.7041110258
asS'2000-01-01 00:03:13.123052'
p1168
(lp1169
F3726.839132
aF22.6713529394
asS'2000-01-01 00:03:11.151711'
p1170
(lp1171
F3495.60141145
aF21.2646724282
asS'2000-01-01 00:03:23.181055'
p1172
(lp1173
F2488.66722662
aF15.1392241643
asS'2000-01-01 00:03:17.953094'
p1174
(lp1175
F3619.72942169
aF22.0197761046
asS'2000-01-01 00:03:26.732054'
p1176
(lp1177
F1275.16292757
aF7.75715499444
asS'2000-01-01 00:03:16.081851'
p1178
(lp1179
F3775.63627391
aF22.9681989227
asS'2000-01-01 00:03:21.997470'
p1180
(lp1181
F2824.60181051
aF17.182803521
asS'2000-01-01 00:03:14.009561'
p1182
(lp1183
F3779.58237958
aF22.9922041322
asS'2000-01-01 00:03:29.982046'
p1184
(lp1185
F7.11230875603
aF0.0432660644345
asS'2000-01-01 00:03:25.250871'
p1186
(lp1187
F1812.86964338
aF11.0281678555
asS'2000-01-01 00:03:33.333241'
p1188
(lp1189
F1299.67192352
aF7.90624973064
asS'2000-01-01 00:03:11.742841'
p1190
(lp1191
F3581.09741643
aF21.7847673491
asS'2000-01-01 00:03:31.560854'
p1192
(lp1193
F618.388348344
aF3.76182067494
asS'2000-01-01 00:03:33.038901'
p1194
(lp1195
F1189.00856583
aF7.23305511428
asS'2000-01-01 00:03:10.164981'
p1196
(lp1197
F3323.24585212
aF20.216187753
asS'2000-01-01 00:03:19.630476'
p1198
(lp1199
F3361.92226391
aF20.4514666452
asS'2000-01-01 00:03:27.225041'
p1200
(lp1201
F1088.74261594
aF6.62311069298
asS'2000-01-01 00:03:17.855085'
p1202
(lp1203
F3631.40846139
aF22.0908228071
asS'2000-01-01 00:03:08.687826'
p1204
(lp1205
F2999.64330211
aF18.247627436
asS'2000-01-01 00:03:09.870716'
p1206
(lp1207
F3264.88929505
aF19.8611893067
asS'2000-01-01 00:03:31.461523'
p1208
(lp1209
F579.357542722
aF3.52438591094
asS'2000-01-01 00:03:18.348268'
p1210
(lp1211
F3568.78388927
aF21.7098608908
asS'2000-01-01 00:03:29.589245'
p1212
(lp1213
F163.370022572
aF0.993823266923
asS'2000-01-01 00:03:20.319933'
p1214
(lp1215
F3225.38875008
aF19.6208969934
asS'2000-01-01 00:03:29.195386'
p1216
(lp1217
F319.768509808
aF1.94523683154
asS'2000-01-01 00:03:08.787032'
p1218
(lp1219
F3023.71068136
aF18.3940357005
asS'2000-01-01 00:03:14.599928'
p1220
(lp1221
F3796.66688787
aF23.0961337368
asS'2000-01-01 00:03:13.320689'
p1222
(lp1223
F3741.39788215
aF22.7599176859
asS'2000-01-01 00:03:29.785577'
p1224
(lp1225
F85.2878422227
aF0.51882861159
asS'2000-01-01 00:03:22.688176'
p1226
(lp1227
F2633.51024521
aF16.0203427419
asS'2000-01-01 00:03:16.574111'
p1228
(lp1229
F3748.48382747
aF22.8030233746
asS'2000-01-01 00:03:15.589009'
p1230
(lp1231
F3792.77159689
aF23.0724376465
asS'2000-01-01 00:03:24.659466'
p1232
(lp1233
F2016.06764913
aF12.2642753294
asS'2000-01-01 00:03:18.744255'
p1234
(lp1235
F3511.60323
aF21.3620157433
asS'2000-01-01 00:03:33.628739'
p1236
(lp1237
F1409.530772
aF8.57455030365
asS'2000-01-01 00:03:20.815652'
p1238
(lp1239
F3116.79013199
aF18.9602627368
asS'2000-01-01 00:03:21.703109'
p1240
(lp1241
F2901.60488181
aF17.6512336691
asS'2000-01-01 00:03:27.716935'
p1242
(lp1243
F899.850273268
aF5.47402836971
asS'2000-01-01 00:03:20.024335'
p1244
(lp1245
F3286.02798798
aF19.9897815939
asS'2000-01-01 00:03:19.335855'
p1246
(lp1247
F3414.96269915
aF20.7741257095
asS'2000-01-01 00:03:31.166314'
p1248
(lp1249
F462.998162236
aF2.81654087407
asS'2000-01-01 00:03:28.702153'
p1250
(lp1251
F514.830491484
aF3.13185070861
asS'2000-01-01 00:03:18.052006'
p1252
(lp1253
F3607.55571408
aF21.9457202057
asS'2000-01-01 00:03:23.476719'
p1254
(lp1255
F2398.58541075
aF14.5912325369
asS'2000-01-01 00:03:20.913904'
p1256
(lp1257
F3094.25852962
aF18.8231970113
asS'2000-01-01 00:03:20.417949'
p1258
(lp1259
F3204.59619104
aF19.4944103306
asS'2000-01-01 00:03:27.323265'
p1260
(lp1261
F1051.24172351
aF6.39498279754
asS'2000-01-01 00:03:21.309211'
p1262
(lp1263
F3000.32084819
aF18.2517491288
asS'2000-01-01 00:03:26.137256'
p1264
(lp1265
F1495.51586051
aF9.09762044972
asS'2000-01-01 00:03:12.335281'
p1266
(lp1267
F3653.01731759
aF22.2222752224
asS'2000-01-01 00:03:18.941200'
p1268
(lp1269
F3480.910531
aF21.1753038979
asS'2000-01-01 00:03:33.530590'
p1270
(lp1271
F1373.18447009
aF8.35344608919
asS'2000-01-01 00:03:25.053488'
p1272
(lp1273
F1881.50982534
aF11.4457243252
asS'2000-01-01 00:03:25.841693'
p1274
(lp1275
F1602.90463203
aF9.75089488813
asS'2000-01-01 00:03:33.431442'
p1276
(lp1277
F1336.32353906
aF8.12921124904
asS'2000-01-01 00:03:34.121079'
p1278
(lp1279
F1589.51991058
aF9.6694720702
asS'2000-01-01 00:03:16.377674'
p1280
(lp1281
F3760.51676833
aF22.8762229519
asS'2000-01-01 00:03:10.559701'
p1282
(lp1283
F3396.55905053
aF20.6621714237
asS'2000-01-01 00:03:19.039213'
p1284
(lp1285
F3465.083601
aF21.0790244764
asS'2000-01-01 00:03:13.713378'
p1286
(lp1287
F3765.56545676
aF22.9069354654
asS'2000-01-01 00:03:19.137687'
p1288
(lp1289
F3448.80883103
aF20.9800207252
asS'2000-01-01 00:03:12.039605'
p1290
(lp1291
F3618.86403134
aF22.014511705
asS'2000-01-01 00:03:31.953526'
p1292
(lp1293
F771.996810627
aF4.69626177625
asS'2000-01-01 00:03:19.828022'
p1294
(lp1295
F3324.56227745
aF20.2241959182
asS'2000-01-01 00:03:21.210979'
p1296
(lp1297
F3024.14976112
aF18.3967067393
asS'2000-01-01 00:03:22.490090'
p1298
(lp1299
F2689.76976498
aF16.3625843531
asS'2000-01-01 00:03:15.195068'
p1300
(lp1301
F3799.20647714
aF23.1115827333
asS'2000-01-01 00:03:15.096247'
p1302
(lp1303
F3799.80666844
aF23.1152338565
asS'2000-01-01 00:03:14.998067'
p1304
(lp1305
F3799.99992862
aF23.1164095095
asS'2000-01-01 00:03:27.126436'
p1306
(lp1307
F1126.26775193
aF6.85138606845
asS'2000-01-01 00:03:24.461971'
p1308
(lp1309
F2082.27627477
aF12.6670399957
asS'2000-01-01 00:03:19.532273'
p1310
(lp1311
F3379.96016393
aF20.561195985
asS'2000-01-01 00:03:17.067565'
p1312
(lp1313
F3711.27095114
aF22.5766475576
asS'2000-01-01 00:03:23.081848'
p1314
(lp1315
F2518.37410302
aF15.3199389888
asS'2000-01-01 00:03:18.842908'
p1316
(lp1317
F3496.41471123
aF21.2696199469
asS'2000-01-01 00:03:34.022540'
p1318
(lp1319
F1553.82018282
aF9.45230113817
asS'2000-01-01 00:03:32.938733'
p1320
(lp1321
F1151.08576475
aF7.00236063645
asS'2000-01-01 00:03:11.053144'
p1322
(lp1323
F3480.04052904
aF21.1700114448
asS'2000-01-01 00:03:16.871197'
p1324
(lp1325
F3727.27242501
aF22.673988776
asS'2000-01-01 00:03:25.447085'
p1326
(lp1327
F1743.86966207
aF10.6084226308
asS'2000-01-01 00:03:32.643138'
p1328
(lp1329
F1038.44924094
aF6.31716272612
asS'2000-01-01 00:03:24.167393'
p1330
(lp1331
F2179.32793483
aF13.2574310377
asS'2000-01-01 00:03:10.658642'
p1332
(lp1333
F3414.03345354
aF20.7684728615
asS'2000-01-01 00:03:09.476911'
p1334
(lp1335
F3181.95236883
aF19.356661942
asS'2000-01-01 00:03:14.501759'
p1336
(lp1337
F3794.83048194
aF23.0849623915
asS'2000-01-01 00:03:29.490057'
p1338
(lp1339
F202.795562906
aF1.23365930708
asS'2000-01-01 00:03:08.886403'
p1340
(lp1341
F3047.49704937
aF18.5387344989
asS'2000-01-01 00:03:23.871739'
p1342
(lp1343
F2274.64475212
aF13.8372685701
asS'2000-01-01 00:03:33.235230'
p1344
(lp1345
F1262.9549439
aF7.68289058518
asS'2000-01-01 00:03:12.531587'
p1346
(lp1347
F3673.75973915
aF22.3484568855
asS'2000-01-01 00:03:10.757081'
p1348
(lp1349
F3431.05486452
aF20.8720186284
asS'2000-01-01 00:03:30.081198'
p1350
(lp1351
F32.3437691406
aF0.196755743837
asS'2000-01-01 00:03:31.067559'
p1352
(lp1353
F423.967630239
aF2.57910777461
asS'2000-01-01 00:03:22.588254'
p1354
(lp1355
F2662.03467697
aF16.1938644414
asS'2000-01-01 00:03:21.801378'
p1356
(lp1357
F2876.20101592
aF17.4966952012
asS'2000-01-01 00:03:14.900013'
p1358
(lp1359
F3799.79203922
aF23.1151448631
asS'2000-01-01 00:03:12.137741'
p1360
(lp1361
F3630.58557187
aF22.0858169514
asS'2000-01-01 00:03:26.929046'
p1362
(lp1363
F1201.05261586
aF7.30632227165
asS'2000-01-01 00:03:11.349738'
p1364
(lp1365
F3525.75149271
aF21.4480833856
asS'2000-01-01 00:03:18.250055'
p1366
(lp1367
F3582.0190755
aF21.7903740462
asS'2000-01-01 00:03:28.405302'
p1368
(lp1369
F631.608679513
aF3.84224346307
asS'2000-01-01 00:03:22.983599'
p1370
(lp1371
F2547.51879128
aF15.4972338733
asS'2000-01-01 00:03:22.787237'
p1372
(lp1373
F2604.95408166
aF15.8466280096
asS'2000-01-01 00:03:25.939943'
p1374
(lp1375
F1567.37144534
aF9.53473706966
asS'2000-01-01 00:03:27.421395'
p1376
(lp1377
F1013.64997852
aF6.16630222181
asS'2000-01-01 00:03:21.407389'
p1378
(lp1379
F2976.18758556
aF18.1049400782
asS'2000-01-01 00:03:09.771366'
p1380
(lp1381
F3244.48516543
aF19.7370655633
asS'2000-01-01 00:03:17.461265'
p1382
(lp1383
F3674.46945578
aF22.3527742805
asS'2000-01-01 00:03:12.728820'
p1384
(lp1385
F3693.03694728
aF22.465725266
asS'2000-01-01 00:03:22.391877'
p1386
(lp1387
F2717.23427835
aF16.5296582873
asS'2000-01-01 00:03:30.671647'
p1388
(lp1389
F267.1353237
aF1.62505517187
asS'2000-01-01 00:03:10.954916'
p1390
(lp1391
F3464.15025646
aF21.0733466935
asS'2000-01-01 00:03:28.800901'
p1392
(lp1393
F475.876618066
aF2.89488394365
asS'2000-01-01 00:03:21.012103'
p1394
(lp1395
F3071.41222941
aF18.6842168951
asS'2000-01-01 00:03:31.264848'
p1396
(lp1397
F501.889644927
aF3.05312809965
asS'2000-01-01 00:03:11.843076'
p1398
(lp1399
F3594.24178265
aF21.8647280223
asS'2000-01-01 00:03:27.913354'
p1400
(lp1401
F823.727948042
aF5.01095603397
asS'2000-01-01 00:03:14.701725'
p1402
(lp1403
F3798.14753554
aF23.1051409101
asS'2000-01-01 00:03:09.673067'
p1404
(lp1405
F3223.94939956
aF19.6121410416
asS'2000-01-01 00:03:18.644245'
p1406
(lp1407
F3526.60685387
aF21.4532867749
asS'2000-01-01 00:03:28.997248'
p1408
(lp1409
F398.264830755
aF2.42275081419
asS'2000-01-01 00:03:21.603875'
p1410
(lp1411
F2926.94662267
aF17.805394214
asS'2000-01-01 00:03:28.208840'
p1412
(lp1413
F708.560811386
aF4.31036373318
asS'2000-01-01 00:03:22.885443'
p1414
(lp1415
F2576.36545296
aF15.6727157831
asS'2000-01-01 00:03:27.519508'
p1416
(lp1417
F975.980378207
aF5.93714803151
asS'2000-01-01 00:03:15.490834'
p1418
(lp1419
F3794.97980336
aF23.0858707534
asS'2000-01-01 00:03:23.674105'
p1420
(lp1421
F2337.15405797
aF14.217529291
asS'2000-01-01 00:03:28.110714'
p1422
(lp1423
F746.885283615
aF4.54350168343
asS'2000-01-01 00:03:24.265631'
p1424
(lp1425
F2147.18773847
aF13.0619136813
asS'2000-01-01 00:03:33.923226'
p1426
(lp1427
F1517.6700728
aF9.23239041113
asS'2000-01-01 00:03:24.758797'
p1428
(lp1429
F1982.47802652
aF12.0599407278
asS'2000-01-01 00:03:15.294430'
p1430
(lp1431
F3798.19253151
aF23.1054146326
asS'2000-01-01 00:03:15.885573'
p1432
(lp1433
F3783.66844048
aF23.0170607267
asS'2000-01-01 00:03:13.911325'
p1434
(lp1435
F3775.33554362
aF22.9663695004
asS'2000-01-01 00:03:29.293703'
p1436
(lp1437
F280.770819968
aF1.70800351964
asS'2000-01-01 00:03:26.530529'
p1438
(lp1439
F1350.41838642
aF8.21495395159
asS'2000-01-01 00:03:20.122361'
p1440
(lp1441
F3266.26368125
aF19.8695500632
asS'2000-01-01 00:03:09.378622'
p1442
(lp1443
F3160.40316198
aF19.2255723895
asS'2000-01-01 00:03:20.716920'
p1444
(lp1445
F3139.09718925
aF19.0959624947
asS'2000-01-01 00:03:20.614197'
p1446
(lp1447
F3161.95186784
aF19.2349935788
asS'2000-01-01 00:03:24.560176'
p1448
(lp1449
F2049.47732107
aF12.4675152432
asS'2000-01-01 00:03:18.150225'
p1450
(lp1451
F3595.08504357
aF21.8698578026
asS'2000-01-01 00:03:27.027225'
p1452
(lp1453
F1163.92520607
aF7.08046637035
asS'2000-01-01 00:03:09.082613'
p1454
(lp1455
F3093.49123675
aF18.8185293648
asS'2000-01-01 00:03:28.503336'
p1456
(lp1457
F593.107919773
aF3.60803310905
asS'2000-01-01 00:03:09.279383'
p1458
(lp1459
F3138.30715546
aF19.0911565092
asS'2000-01-01 00:03:31.363150'
p1460
(lp1461
F540.637118843
aF3.28883928158
asS'2000-01-01 00:03:19.434147'
p1462
(lp1463
F3397.62613195
aF20.6686627636
asS'2000-01-01 00:03:11.250469'
p1464
(lp1465
F3510.82612349
aF21.3572883978
asS'2000-01-01 00:03:32.544992'
p1466
(lp1467
F1000.82669858
aF6.08829480186
asS'2000-01-01 00:03:08.984441'
p1468
(lp1469
F3070.64092719
aF18.6795248587
asS'2000-01-01 00:03:14.206009'
p1470
(lp1471
F3786.87514508
aF23.0365679631
asS'2000-01-01 00:03:23.378620'
p1472
(lp1473
F2428.73480394
aF14.7746393086
asS'2000-01-01 00:03:26.830939'
p1474
(lp1475
F1238.02971356
aF7.53126378453
asS'2000-01-01 00:03:30.968378'
p1476
(lp1477
F384.723507581
aF2.34037534638
asS'2000-01-01 00:03:16.279244'
p1478
(lp1479
F3765.94954224
aF22.9092719595
asS'2000-01-01 00:03:24.857202'
p1480
(lp1481
F1948.97039955
aF11.8561049274
asS'2000-01-01 00:03:33.726877'
p1482
(lp1483
F1445.72227856
aF8.79471285683
asS'2000-01-01 00:03:30.376036'
p1484
(lp1485
F149.631446086
aF0.910247854788
asS'2000-01-01 00:03:25.152796'
p1486
(lp1487
F1847.07298851
aF11.2362358943
asS'2000-01-01 00:03:10.362617'
p1488
(lp1489
F3360.67123313
aF20.4438562925
asS'2000-01-01 00:03:17.363117'
p1490
(lp1491
F3684.23087881
aF22.4121556111
asS'2000-01-01 00:03:09.968746'
p1492
(lp1493
F3284.67659758
aF19.9815607269
asS'2000-01-01 00:03:26.333876'
p1494
(lp1495
F1423.2756642
aF8.65816413597
asS'2000-01-01 00:03:25.743392'
p1496
(lp1497
F1638.28718419
aF9.96613635665
asS'2000-01-01 00:03:22.293751'
p1498
(lp1499
F2744.38629688
aF16.6948312323
asS'2000-01-01 00:03:31.757110'
p1500
(lp1501
F695.308412014
aF4.22974586565
asS'2000-01-01 00:03:09.181163'
p1502
(lp1503
F3116.11298438
aF18.9561434679
asS'2000-01-01 00:03:17.165813'
p1504
(lp1505
F3702.67531187
aF22.5243579994
asS'2000-01-01 00:03:33.137129'
p1506
(lp1507
F1226.06990473
aF7.4585090888
asS'2000-01-01 00:03:29.391854'
p1508
(lp1509
F241.806100974
aF1.47097077816
asS'2000-01-01 00:03:32.445829'
p1510
(lp1511
F962.705444115
aF5.85639307928
asS'2000-01-01 00:03:22.195337'
p1512
(lp1513
F2771.32262181
aF16.8586920558
asS'2000-01-01 00:03:30.870165'
p1514
(lp1515
F345.824265769
aF2.10374092001
asS'2000-01-01 00:03:27.815187'
p1516
(lp1517
F861.816298508
aF5.24265759277
asS'2000-01-01 00:03:21.505702'
p1518
(lp1519
F2951.70514586
aF17.9560068908
asS'2000-01-01 00:03:13.516813'
p1520
(lp1521
F3754.26166696
aF22.8381715078
asS'2000-01-01 00:03:18.446328'
p1522
(lp1523
F3555.19217781
aF21.6271788977
asS'2000-01-01 00:03:20.221723'
p1524
(lp1525
F3245.88143334
aF19.7455594321
asS'2000-01-01 00:03:28.899130'
p1526
(lp1527
F437.073040993
aF2.65883147131
asS'2000-01-01 00:03:16.179995'
p1528
(lp1529
F3771.02135755
aF22.94012516
asS'2000-01-01 00:03:16.672914'
p1530
(lp1531
F3741.83016707
aF22.76254739
asS'2000-01-01 00:03:14.305481'
p1532
(lp1533
F3789.95647035
aF23.0553124836
asS'2000-01-01 00:03:16.475928'
p1534
(lp1535
F3754.69699846
aF22.840819745
asS'2000-01-01 00:03:30.771087'
p1536
(lp1537
F306.545694593
aF1.86479893229
asS'2000-01-01 00:03:10.263401'
p1538
(lp1539
F3342.06201594
aF20.3306514784
asS'2000-01-01 00:03:32.150962'
p1540
(lp1541
F848.753826849
aF5.163195106
asS'2000-01-01 00:03:23.279637'
p1542
(lp1543
F2458.89700633
aF14.9581240021
asS'2000-01-01 00:03:19.729684'
p1544
(lp1545
F3343.33970233
aF20.3384239843
asS'2000-01-01 00:03:32.249429'
p1546
(lp1547
F886.905475507
aF5.39528172453
asS'2000-01-01 00:03:12.236060'
p1548
(lp1549
F3641.94504267
aF22.1549196314
asS'2000-01-01 00:03:31.855341'
p1550
(lp1551
F733.700184571
aF4.46329322168
asS'2000-01-01 00:03:28.307174'
p1552
(lp1553
F670.080416305
aF4.07627726279
asS'2000-01-01 00:03:17.756898'
p1554
(lp1555
F3642.72536461
aF22.1596665371
asS'2000-01-01 00:03:30.179416'
p1556
(lp1557
F71.4319145536
aF0.434539321024
asS'2000-01-01 00:03:21.110636'
p1558
(lp1559
F3048.15845464
aF18.5427580029
asS'2000-01-01 00:03:25.545931'
p1560
(lp1561
F1708.82732187
aF10.395250762
asS'2000-01-01 00:03:28.011557'
p1562
(lp1563
F785.534644667
aF4.77861601873
ass.