(dp0
S'Potentiometer1'
p1
(dp2
S'2000-01-01 00:04:31.336575'
p3
F0.54400001049
sS'2000-01-01 00:04:28.767730'
p4
F0.543199982643
sS'2000-01-01 00:04:36.776614'
p5
F0.544799995422
sS'2000-01-01 00:05:08.935974'
p6
F0.637600007057
sS'2000-01-01 00:05:02.413264'
p7
F0.63679997921
sS'2000-01-01 00:05:09.332116'
p8
F0.63679997921
sS'2000-01-01 00:05:00.634332'
p9
F0.635999994278
sS'2000-01-01 00:04:33.314120'
p10
F0.543199982643
sS'2000-01-01 00:05:04.981620'
p11
F0.635200009346
sS'2000-01-01 00:04:40.040607'
p12
F0.54400001049
sS'2000-01-01 00:05:06.562888'
p13
F0.635999994278
sS'2000-01-01 00:04:36.579391'
p14
F0.543199982643
sS'2000-01-01 00:04:44.895921'
p15
F0.503999991417
sS'2000-01-01 00:05:05.179532'
p16
F0.635200009346
sS'2000-01-01 00:04:57.160285'
p17
F0.635200009346
sS'2000-01-01 00:04:58.257258'
p18
F0.635200009346
sS'2000-01-01 00:05:01.621945'
p19
F0.635999994278
sS'2000-01-01 00:05:07.452252'
p20
F0.637600007057
sS'2000-01-01 00:04:51.820938'
p21
F0.638399991989
sS'2000-01-01 00:04:41.028207'
p22
F0.54400001049
sS'2000-01-01 00:04:37.270840'
p23
F0.540799984932
sS'2000-01-01 00:04:33.018944'
p24
F0.543199982643
sS'2000-01-01 00:04:41.824550'
p25
F0.540799984932
sS'2000-01-01 00:04:30.249690'
p26
F0.544799995422
sS'2000-01-01 00:05:08.442264'
p27
F0.635200009346
sS'2000-01-01 00:04:58.651338'
p28
F0.635200009346
sS'2000-01-01 00:04:32.918493'
p29
F0.543199982643
sS'2000-01-01 00:05:03.895398'
p30
F0.635999994278
sS'2000-01-01 00:04:58.849382'
p31
F0.635999994278
sS'2000-01-01 00:04:59.244427'
p32
F0.63679997921
sS'2000-01-01 00:04:28.964537'
p33
F0.54400001049
sS'2000-01-01 00:04:52.516395'
p34
F0.634399981499
sS'2000-01-01 00:04:57.753803'
p35
F0.63679997921
sS'2000-01-01 00:05:08.541064'
p36
F0.63679997921
sS'2000-01-01 00:05:04.389553'
p37
F0.63679997921
sS'2000-01-01 00:04:48.458601'
p38
F0.63679997921
sS'2000-01-01 00:04:36.381355'
p39
F0.543199982643
sS'2000-01-01 00:04:37.764566'
p40
F0.544799995422
sS'2000-01-01 00:04:48.260320'
p41
F0.637600007057
sS'2000-01-01 00:04:30.743135'
p42
F0.544799995422
sS'2000-01-01 00:04:44.796254'
p43
F0.510399999619
sS'2000-01-01 00:04:50.239186'
p44
F0.638399991989
sS'2000-01-01 00:04:42.720875'
p45
F0.54400001049
sS'2000-01-01 00:04:55.579373'
p46
F0.63679997921
sS'2000-01-01 00:05:04.686368'
p47
F0.63679997921
sS'2000-01-01 00:04:55.480732'
p48
F0.633599996567
sS'2000-01-01 00:04:53.405172'
p49
F0.635200009346
sS'2000-01-01 00:04:56.075096'
p50
F0.635999994278
sS'2000-01-01 00:05:00.339035'
p51
F0.635999994278
sS'2000-01-01 00:04:34.600751'
p52
F0.543199982643
sS'2000-01-01 00:04:41.225103'
p53
F0.543199982643
sS'2000-01-01 00:04:41.126659'
p54
F0.542399997711
sS'2000-01-01 00:04:54.986793'
p55
F0.635999994278
sS'2000-01-01 00:04:58.157619'
p56
F0.63679997921
sS'2000-01-01 00:05:09.430555'
p57
F0.63679997921
sS'2000-01-01 00:04:29.458556'
p58
F0.543199982643
sS'2000-01-01 00:04:33.511967'
p59
F0.544799995422
sS'2000-01-01 00:05:02.808739'
p60
F0.635200009346
sS'2000-01-01 00:04:54.493389'
p61
F0.63679997921
sS'2000-01-01 00:04:48.853877'
p62
F0.637600007057
sS'2000-01-01 00:04:47.366095'
p63
F0.639200019836
sS'2000-01-01 00:04:55.283324'
p64
F0.63679997921
sS'2000-01-01 00:04:44.006932'
p65
F0.900800027847
sS'2000-01-01 00:04:38.357436'
p66
F0.541600012779
sS'2000-01-01 00:05:08.640676'
p67
F0.635200009346
sS'2000-01-01 00:05:09.232844'
p68
F0.63679997921
sS'2000-01-01 00:04:40.436449'
p69
F0.544799995422
sS'2000-01-01 00:04:55.777786'
p70
F0.635200009346
sS'2000-01-01 00:05:06.464395'
p71
F0.63679997921
sS'2000-01-01 00:04:50.338762'
p72
F0.637600007057
sS'2000-01-01 00:04:53.898942'
p73
F0.635200009346
sS'2000-01-01 00:05:00.931068'
p74
F0.635200009346
sS'2000-01-01 00:04:43.312618'
p75
F0.6407999897
sS'2000-01-01 00:04:30.348007'
p76
F0.54400001049
sS'2000-01-01 00:04:39.049294'
p77
F0.544799995422
sS'2000-01-01 00:04:38.258979'
p78
F0.543199982643
sS'2000-01-01 00:04:52.813552'
p79
F0.635200009346
sS'2000-01-01 00:04:56.371494'
p80
F0.637600007057
sS'2000-01-01 00:04:50.930632'
p81
F0.638399991989
sS'2000-01-01 00:04:45.982946'
p82
F0.637600007057
sS'2000-01-01 00:04:47.861823'
p83
F0.638399991989
sS'2000-01-01 00:05:07.948070'
p84
F0.637600007057
sS'2000-01-01 00:04:53.207158'
p85
F0.635999994278
sS'2000-01-01 00:04:51.225991'
p86
F0.635200009346
sS'2000-01-01 00:04:56.173604'
p87
F0.635999994278
sS'2000-01-01 00:05:07.849507'
p88
F0.635200009346
sS'2000-01-01 00:04:47.464699'
p89
F0.637600007057
sS'2000-01-01 00:04:47.168170'
p90
F0.638399991989
sS'2000-01-01 00:05:00.141010'
p91
F0.635999994278
sS'2000-01-01 00:04:49.841519'
p92
F0.638399991989
sS'2000-01-01 00:05:07.651983'
p93
F0.635999994278
sS'2000-01-01 00:05:05.376350'
p94
F0.635999994278
sS'2000-01-01 00:04:45.289534'
p95
F0.624799990654
sS'2000-01-01 00:04:48.655847'
p96
F0.639200019836
sS'2000-01-01 00:05:01.325861'
p97
F0.63679997921
sS'2000-01-01 00:05:08.343904'
p98
F0.63679997921
sS'2000-01-01 00:04:37.468919'
p99
F0.543199982643
sS'2000-01-01 00:04:44.105507'
p100
F0.909599990845
sS'2000-01-01 00:04:59.144672'
p101
F0.63679997921
sS'2000-01-01 00:04:43.609425'
p102
F0.9
sS'2000-01-01 00:04:31.830893'
p103
F0.543199982643
sS'2000-01-01 00:04:31.633657'
p104
F0.54400001049
sS'2000-01-01 00:04:28.866116'
p105
F0.543199982643
sS'2000-01-01 00:04:39.147790'
p106
F0.543199982643
sS'2000-01-01 00:04:43.806666'
p107
F0.9
sS'2000-01-01 00:04:43.214221'
p108
F0.615199999809
sS'2000-01-01 00:04:45.684537'
p109
F0.638399991989
sS'2000-01-01 00:05:03.104000'
p110
F0.635999994278
sS'2000-01-01 00:04:35.489072'
p111
F0.542399997711
sS'2000-01-01 00:05:01.227433'
p112
F0.635999994278
sS'2000-01-01 00:05:04.883227'
p113
F0.637600007057
sS'2000-01-01 00:04:30.052893'
p114
F0.542399997711
sS'2000-01-01 00:04:31.139513'
p115
F0.54400001049
sS'2000-01-01 00:04:35.290822'
p116
F0.54400001049
sS'2000-01-01 00:04:50.140775'
p117
F0.638399991989
sS'2000-01-01 00:05:05.277901'
p118
F0.635200009346
sS'2000-01-01 00:04:45.882954'
p119
F0.637600007057
sS'2000-01-01 00:05:06.168829'
p120
F0.635200009346
sS'2000-01-01 00:05:09.134084'
p121
F0.637600007057
sS'2000-01-01 00:04:52.318898'
p122
F0.635999994278
sS'2000-01-01 00:04:35.587662'
p123
F0.54400001049
sS'2000-01-01 00:04:39.246375'
p124
F0.543199982643
sS'2000-01-01 00:04:48.161897'
p125
F0.638399991989
sS'2000-01-01 00:04:49.347485'
p126
F0.637600007057
sS'2000-01-01 00:05:06.365799'
p127
F0.635999994278
sS'2000-01-01 00:04:41.925221'
p128
F0.531199994087
sS'2000-01-01 00:04:57.061862'
p129
F0.634399981499
sS'2000-01-01 00:04:57.555200'
p130
F0.63679997921
sS'2000-01-01 00:04:48.359858'
p131
F0.637600007057
sS'2000-01-01 00:05:01.721562'
p132
F0.635200009346
sS'2000-01-01 00:05:07.353208'
p133
F0.63679997921
sS'2000-01-01 00:04:33.708706'
p134
F0.54400001049
sS'2000-01-01 00:04:31.237923'
p135
F0.543199982643
sS'2000-01-01 00:04:42.321701'
p136
F0.54
sS'2000-01-01 00:05:04.291181'
p137
F0.635999994278
sS'2000-01-01 00:04:53.602006'
p138
F0.635200009346
sS'2000-01-01 00:04:50.535962'
p139
F0.638399991989
sS'2000-01-01 00:04:29.359785'
p140
F0.543199982643
sS'2000-01-01 00:04:33.412456'
p141
F0.544799995422
sS'2000-01-01 00:04:44.402157'
p142
F0.796800012589
sS'2000-01-01 00:04:55.677853'
p143
F0.637600007057
sS'2000-01-01 00:04:48.557270'
p144
F0.639200019836
sS'2000-01-01 00:04:46.081758'
p145
F0.638399991989
sS'2000-01-01 00:04:56.273135'
p146
F0.63679997921
sS'2000-01-01 00:04:38.556006'
p147
F0.54400001049
sS'2000-01-01 00:04:58.750961'
p148
F0.635200009346
sS'2000-01-01 00:04:34.205352'
p149
F0.543199982643
sS'2000-01-01 00:04:58.058896'
p150
F0.63679997921
sS'2000-01-01 00:04:53.503608'
p151
F0.635200009346
sS'2000-01-01 00:04:34.896214'
p152
F0.54400001049
sS'2000-01-01 00:04:41.725108'
p153
F0.543199982643
sS'2000-01-01 00:05:00.240597'
p154
F0.635999994278
sS'2000-01-01 00:04:59.046256'
p155
F0.635200009346
sS'2000-01-01 00:04:31.435191'
p156
F0.54400001049
sS'2000-01-01 00:04:29.656621'
p157
F0.543199982643
sS'2000-01-01 00:04:54.690325'
p158
F0.635999994278
sS'2000-01-01 00:05:07.551955'
p159
F0.637600007057
sS'2000-01-01 00:04:36.677774'
p160
F0.54400001049
sS'2000-01-01 00:04:44.994312'
p161
F0.504800019264
sS'2000-01-01 00:04:59.936216'
p162
F0.63679997921
sS'2000-01-01 00:04:56.666883'
p163
F0.63679997921
sS'2000-01-01 00:04:35.389171'
p164
F0.542399997711
sS'2000-01-01 00:04:36.282911'
p165
F0.544799995422
sS'2000-01-01 00:04:36.184333'
p166
F0.543199982643
sS'2000-01-01 00:04:34.699094'
p167
F0.54400001049
sS'2000-01-01 00:04:42.622368'
p168
F0.542399997711
sS'2000-01-01 00:05:00.733981'
p169
F0.635200009346
sS'2000-01-01 00:05:05.573729'
p170
F0.635999994278
sS'2000-01-01 00:04:39.344704'
p171
F0.543199982643
sS'2000-01-01 00:04:39.740797'
p172
F0.543199982643
sS'2000-01-01 00:04:57.358302'
p173
F0.63679997921
sS'2000-01-01 00:04:32.031415'
p174
F0.543199982643
sS'2000-01-01 00:04:54.295369'
p175
F0.635999994278
sS'2000-01-01 00:04:54.591924'
p176
F0.635999994278
sS'2000-01-01 00:04:44.697645'
p177
F0.539200015068
sS'2000-01-01 00:04:46.673984'
p178
F0.637600007057
sS'2000-01-01 00:04:58.454443'
p179
F0.635999994278
sS'2000-01-01 00:04:52.022293'
p180
F0.63679997921
sS'2000-01-01 00:04:53.010280'
p181
F0.63679997921
sS'2000-01-01 00:04:29.064091'
p182
F0.54400001049
sS'2000-01-01 00:04:57.653749'
p183
F0.635200009346
sS'2000-01-01 00:04:41.329856'
p184
F0.542399997711
sS'2000-01-01 00:04:30.151248'
p185
F0.544799995422
sS'2000-01-01 00:04:43.906284'
p186
F0.909599990845
sS'2000-01-01 00:04:44.500770'
p187
F0.737600011826
sS'2000-01-01 00:04:52.713760'
p188
F0.635999994278
sS'2000-01-01 00:04:35.192475'
p189
F0.544799995422
sS'2000-01-01 00:04:53.700506'
p190
F0.633599996567
sS'2000-01-01 00:05:05.870783'
p191
F0.63679997921
sS'2000-01-01 00:04:59.837536'
p192
F0.63679997921
sS'2000-01-01 00:04:39.641939'
p193
F0.542399997711
sS'2000-01-01 00:04:59.738539'
p194
F0.634399981499
sS'2000-01-01 00:04:46.476954'
p195
F0.638399991989
sS'2000-01-01 00:04:39.839502'
p196
F0.54400001049
sS'2000-01-01 00:04:32.425124'
p197
F0.543199982643
sS'2000-01-01 00:04:53.306760'
p198
F0.632800011635
sS'2000-01-01 00:04:52.219280'
p199
F0.638399991989
sS'2000-01-01 00:04:51.029024'
p200
F0.637600007057
sS'2000-01-01 00:04:32.524722'
p201
F0.544799995422
sS'2000-01-01 00:04:40.534908'
p202
F0.543199982643
sS'2000-01-01 00:05:01.820486'
p203
F0.63679997921
sS'2000-01-01 00:04:30.546250'
p204
F0.544799995422
sS'2000-01-01 00:04:44.302559'
p205
F0.900800027847
sS'2000-01-01 00:04:58.947773'
p206
F0.635999994278
sS'2000-01-01 00:04:51.919521'
p207
F0.638399991989
sS'2000-01-01 00:04:45.487673'
p208
F0.647199997902
sS'2000-01-01 00:05:05.969180'
p209
F0.63679997921
sS'2000-01-01 00:05:00.832580'
p210
F0.635200009346
sS'2000-01-01 00:05:06.267337'
p211
F0.635999994278
sS'2000-01-01 00:04:35.784988'
p212
F0.54400001049
sS'2000-01-01 00:05:08.837607'
p213
F0.635999994278
sS'2000-01-01 00:04:31.041160'
p214
F0.54400001049
sS'2000-01-01 00:04:48.063382'
p215
F0.638399991989
sS'2000-01-01 00:04:37.665673'
p216
F0.543199982643
sS'2000-01-01 00:04:32.326637'
p217
F0.543199982643
sS'2000-01-01 00:04:59.441466'
p218
F0.635200009346
sS'2000-01-01 00:04:57.950982'
p219
F0.635999994278
sS'2000-01-01 00:04:55.975559'
p220
F0.637600007057
sS'2000-01-01 00:04:53.998452'
p221
F0.635200009346
sS'2000-01-01 00:04:50.732769'
p222
F0.637600007057
sS'2000-01-01 00:05:05.475052'
p223
F0.635999994278
sS'2000-01-01 00:05:03.499740'
p224
F0.63679997921
sS'2000-01-01 00:04:48.952309'
p225
F0.637600007057
sS'2000-01-01 00:04:40.237599'
p226
F0.543199982643
sS'2000-01-01 00:04:31.931336'
p227
F0.543199982643
sS'2000-01-01 00:04:48.754287'
p228
F0.639200019836
sS'2000-01-01 00:05:06.662426'
p229
F0.635200009346
sS'2000-01-01 00:04:47.069765'
p230
F0.63679997921
sS'2000-01-01 00:04:51.424608'
p231
F0.638399991989
sS'2000-01-01 00:04:32.820134'
p232
F0.543199982643
sS'2000-01-01 00:04:59.342742'
p233
F0.634399981499
sS'2000-01-01 00:04:33.807468'
p234
F0.54400001049
sS'2000-01-01 00:04:45.389058'
p235
F0.650399980545
sS'2000-01-01 00:04:46.180193'
p236
F0.63679997921
sS'2000-01-01 00:04:43.115744'
p237
F0.587200012207
sS'2000-01-01 00:05:05.772246'
p238
F0.63679997921
sS'2000-01-01 00:04:45.586179'
p239
F0.638399991989
sS'2000-01-01 00:04:36.085789'
p240
F0.54400001049
sS'2000-01-01 00:04:49.544562'
p241
F0.637600007057
sS'2000-01-01 00:04:52.615307'
p242
F0.635200009346
sS'2000-01-01 00:04:35.883587'
p243
F0.543199982643
sS'2000-01-01 00:04:51.127435'
p244
F0.638399991989
sS'2000-01-01 00:04:57.259874'
p245
F0.63679997921
sS'2000-01-01 00:04:37.863097'
p246
F0.542399997711
sS'2000-01-01 00:04:37.963286'
p247
F0.54400001049
sS'2000-01-01 00:05:03.005611'
p248
F0.635999994278
sS'2000-01-01 00:04:37.369305'
p249
F0.54400001049
sS'2000-01-01 00:05:04.784861'
p250
F0.63679997921
sS'2000-01-01 00:04:35.094098'
p251
F0.54400001049
sS'2000-01-01 00:04:29.558244'
p252
F0.54400001049
sS'2000-01-01 00:04:47.964442'
p253
F0.638399991989
sS'2000-01-01 00:05:01.424755'
p254
F0.63679997921
sS'2000-01-01 00:04:40.929838'
p255
F0.543199982643
sS'2000-01-01 00:05:09.034465'
p256
F0.63679997921
sS'2000-01-01 00:04:40.336071'
p257
F0.54400001049
sS'2000-01-01 00:04:45.783273'
p258
F0.637600007057
sS'2000-01-01 00:04:32.129805'
p259
F0.543199982643
sS'2000-01-01 00:04:37.073208'
p260
F0.54400001049
sS'2000-01-01 00:04:32.623113'
p261
F0.543199982643
sS'2000-01-01 00:04:39.444435'
p262
F0.542399997711
sS'2000-01-01 00:04:35.686078'
p263
F0.543199982643
sS'2000-01-01 00:04:29.755422'
p264
F0.542399997711
sS'2000-01-01 00:04:38.851351'
p265
F0.543199982643
sS'2000-01-01 00:05:04.586718'
p266
F0.635999994278
sS'2000-01-01 00:04:57.456697'
p267
F0.635999994278
sS'2000-01-01 00:04:28.669064'
p268
F0.544799995422
sS'2000-01-01 00:04:34.995724'
p269
F0.54400001049
sS'2000-01-01 00:04:50.634411'
p270
F0.637600007057
sS'2000-01-01 00:04:32.228237'
p271
F0.543199982643
sS'2000-01-01 00:04:51.325747'
p272
F0.638399991989
sS'2000-01-01 00:04:53.800527'
p273
F0.635200009346
sS'2000-01-01 00:04:55.085268'
p274
F0.635999994278
sS'2000-01-01 00:04:41.528208'
p275
F0.542399997711
sS'2000-01-01 00:04:35.987238'
p276
F0.543199982643
sS'2000-01-01 00:04:58.553030'
p277
F0.635999994278
sS'2000-01-01 00:04:42.918836'
p278
F0.56880001545
sS'2000-01-01 00:05:02.116753'
p279
F0.635999994278
sS'2000-01-01 00:05:04.488184'
p280
F0.63679997921
sS'2000-01-01 00:04:33.215705'
p281
F0.543199982643
sS'2000-01-01 00:04:52.120866'
p282
F0.637600007057
sS'2000-01-01 00:04:40.139060'
p283
F0.54400001049
sS'2000-01-01 00:04:45.191171'
p284
F0.599200000763
sS'2000-01-01 00:04:30.446364'
p285
F0.54400001049
sS'2000-01-01 00:05:01.127820'
p286
F0.635999994278
sS'2000-01-01 00:04:54.888414'
p287
F0.63679997921
sS'2000-01-01 00:05:06.068217'
p288
F0.63679997921
sS'2000-01-01 00:04:47.762062'
p289
F0.639200019836
sS'2000-01-01 00:05:07.750841'
p290
F0.635200009346
sS'2000-01-01 00:04:42.124816'
p291
F0.531199994087
sS'2000-01-01 00:04:54.394689'
p292
F0.635999994278
sS'2000-01-01 00:04:38.457315'
p293
F0.54400001049
sS'2000-01-01 00:05:02.017351'
p294
F0.63679997921
sS'2000-01-01 00:04:33.905978'
p295
F0.54400001049
sS'2000-01-01 00:04:42.522576'
p296
F0.552800016403
sS'2000-01-01 00:04:59.638940'
p297
F0.63679997921
sS'2000-01-01 00:05:05.673422'
p298
F0.63679997921
sS'2000-01-01 00:04:36.875297'
p299
F0.54400001049
sS'2000-01-01 00:04:43.017366'
p300
F0.570399985313
sS'2000-01-01 00:05:08.146868'
p301
F0.635999994278
sS'2000-01-01 00:05:00.535797'
p302
F0.63679997921
sS'2000-01-01 00:04:32.721510'
p303
F0.543199982643
sS'2000-01-01 00:04:29.953120'
p304
F0.54400001049
sS'2000-01-01 00:04:34.402122'
p305
F0.543199982643
sS'2000-01-01 00:05:03.598231'
p306
F0.63679997921
sS'2000-01-01 00:04:56.568483'
p307
F0.63679997921
sS'2000-01-01 00:04:49.050661'
p308
F0.63679997921
sS'2000-01-01 00:04:46.378327'
p309
F0.637600007057
sS'2000-01-01 00:05:03.301961'
p310
F0.63679997921
sS'2000-01-01 00:05:03.203548'
p311
F0.635999994278
sS'2000-01-01 00:05:06.859764'
p312
F0.635999994278
sS'2000-01-01 00:04:47.663073'
p313
F0.638399991989
sS'2000-01-01 00:05:03.993824'
p314
F0.634399981499
sS'2000-01-01 00:04:58.355658'
p315
F0.63679997921
sS'2000-01-01 00:04:44.599255'
p316
F0.612000017166
sS'2000-01-01 00:04:54.195730'
p317
F0.635200009346
sS'2000-01-01 00:04:56.766539'
p318
F0.635999994278
sS'2000-01-01 00:05:01.523471'
p319
F0.635200009346
sS'2000-01-01 00:05:01.918889'
p320
F0.63679997921
sS'2000-01-01 00:05:07.156303'
p321
F0.635999994278
sS'2000-01-01 00:04:49.247907'
p322
F0.638399991989
sS'2000-01-01 00:04:34.106711'
p323
F0.542399997711
sS'2000-01-01 00:04:51.523997'
p324
F0.63679997921
sS'2000-01-01 00:04:47.266501'
p325
F0.638399991989
sS'2000-01-01 00:05:08.245438'
p326
F0.635999994278
sS'2000-01-01 00:04:43.707892'
p327
F0.908000020981
sS'2000-01-01 00:04:42.026345'
p328
F0.538399987221
sS'2000-01-01 00:04:33.610282'
p329
F0.543199982643
sS'2000-01-01 00:04:29.162437'
p330
F0.544799995422
sS'2000-01-01 00:04:37.171583'
p331
F0.54400001049
sS'2000-01-01 00:04:44.204004'
p332
F0.9
sS'2000-01-01 00:04:49.149215'
p333
F0.638399991989
sS'2000-01-01 00:04:52.911902'
p334
F0.635999994278
sS'2000-01-01 00:04:47.564549'
p335
F0.638399991989
sS'2000-01-01 00:04:56.865006'
p336
F0.635200009346
sS'2000-01-01 00:04:30.644694'
p337
F0.543199982643
sS'2000-01-01 00:04:55.381709'
p338
F0.63679997921
sS'2000-01-01 00:04:49.741828'
p339
F0.638399991989
sS'2000-01-01 00:04:49.445966'
p340
F0.639200019836
sS'2000-01-01 00:04:42.819288'
p341
F0.548000020981
sS'2000-01-01 00:04:38.160537'
p342
F0.543199982643
sS'2000-01-01 00:04:45.092752'
p343
F0.542399997711
sS'2000-01-01 00:05:03.400286'
p344
F0.635999994278
sS'2000-01-01 00:04:29.261321'
p345
F0.54400001049
sS'2000-01-01 00:04:57.852428'
p346
F0.635999994278
sS'2000-01-01 00:04:59.540449'
p347
F0.635999994278
sS'2000-01-01 00:05:02.314819'
p348
F0.635999994278
sS'2000-01-01 00:04:34.303782'
p349
F0.544799995422
sS'2000-01-01 00:05:03.796902'
p350
F0.63679997921
sS'2000-01-01 00:04:39.543329'
p351
F0.54400001049
sS'2000-01-01 00:05:05.079957'
p352
F0.63679997921
sS'2000-01-01 00:04:46.872433'
p353
F0.63679997921
sS'2000-01-01 00:05:04.092944'
p354
F0.635999994278
sS'2000-01-01 00:05:08.046989'
p355
F0.637600007057
sS'2000-01-01 00:04:49.939970'
p356
F0.638399991989
sS'2000-01-01 00:04:30.842665'
p357
F0.542399997711
sS'2000-01-01 00:04:50.041427'
p358
F0.637600007057
sS'2000-01-01 00:05:06.761061'
p359
F0.635999994278
sS'2000-01-01 00:04:34.797727'
p360
F0.54400001049
sS'2000-01-01 00:04:51.622484'
p361
F0.638399991989
sS'2000-01-01 00:04:29.853997'
p362
F0.54400001049
sS'2000-01-01 00:04:46.575557'
p363
F0.637600007057
sS'2000-01-01 00:05:08.739181'
p364
F0.635200009346
sS'2000-01-01 00:04:56.470015'
p365
F0.635999994278
sS'2000-01-01 00:05:03.697837'
p366
F0.635999994278
sS'2000-01-01 00:04:42.421851'
p367
F0.554399986267
sS'2000-01-01 00:04:41.429822'
p368
F0.542399997711
sS'2000-01-01 00:04:33.117341'
p369
F0.54400001049
sS'2000-01-01 00:04:50.437220'
p370
F0.639200019836
sS'2000-01-01 00:05:07.254741'
p371
F0.634399981499
sS'2000-01-01 00:04:42.223185'
p372
F0.54
sS'2000-01-01 00:05:01.029447'
p373
F0.63679997921
sS'2000-01-01 00:05:00.042126'
p374
F0.635999994278
sS'2000-01-01 00:04:38.950905'
p375
F0.54400001049
sS'2000-01-01 00:04:43.412149'
p376
F0.736000041962
sS'2000-01-01 00:04:40.830204'
p377
F0.54400001049
sS'2000-01-01 00:04:34.502281'
p378
F0.54400001049
sS'2000-01-01 00:05:02.511916'
p379
F0.635999994278
sS'2000-01-01 00:04:55.183710'
p380
F0.635999994278
sS'2000-01-01 00:05:06.958325'
p381
F0.635200009346
sS'2000-01-01 00:04:53.108728'
p382
F0.635200009346
sS'2000-01-01 00:05:02.610341'
p383
F0.635999994278
sS'2000-01-01 00:04:40.731773'
p384
F0.543199982643
sS'2000-01-01 00:05:04.192725'
p385
F0.63679997921
sS'2000-01-01 00:04:49.642955'
p386
F0.638399991989
sS'2000-01-01 00:05:07.056754'
p387
F0.63679997921
sS'2000-01-01 00:04:51.720892'
p388
F0.637600007057
sS'2000-01-01 00:04:54.097301'
p389
F0.635999994278
sS'2000-01-01 00:04:31.732105'
p390
F0.54400001049
sS'2000-01-01 00:04:50.832342'
p391
F0.637600007057
sS'2000-01-01 00:05:02.907111'
p392
F0.635999994278
sS'2000-01-01 00:04:38.752885'
p393
F0.54400001049
sS'2000-01-01 00:04:40.633291'
p394
F0.543199982643
sS'2000-01-01 00:04:36.480886'
p395
F0.54400001049
sS'2000-01-01 00:04:46.278697'
p396
F0.63679997921
sS'2000-01-01 00:04:41.626713'
p397
F0.542399997711
sS'2000-01-01 00:04:52.417407'
p398
F0.635999994278
sS'2000-01-01 00:04:46.971173'
p399
F0.637600007057
sS'2000-01-01 00:04:56.963394'
p400
F0.635999994278
sS'2000-01-01 00:04:38.654452'
p401
F0.542399997711
sS'2000-01-01 00:04:55.876468'
p402
F0.637600007057
sS'2000-01-01 00:04:38.062145'
p403
F0.543199982643
sS'2000-01-01 00:05:02.709921'
p404
F0.635999994278
sS'2000-01-01 00:04:36.974913'
p405
F0.543199982643
sS'2000-01-01 00:04:30.941556'
p406
F0.544799995422
sS'2000-01-01 00:04:46.772555'
p407
F0.637600007057
sS'2000-01-01 00:04:54.789979'
p408
F0.63679997921
sS'2000-01-01 00:04:39.939083'
p409
F0.542399997711
sS'2000-01-01 00:04:31.535087'
p410
F0.54400001049
sS'2000-01-01 00:05:02.216397'
p411
F0.637600007057
sS'2000-01-01 00:04:37.567254'
p412
F0.54400001049
sS'2000-01-01 00:04:43.510973'
p413
F0.792000017166
sS'2000-01-01 00:05:00.437363'
p414
F0.635999994278
sS'2000-01-01 00:04:34.008134'
p415
F0.542399997711
ssS'Potentiometer0'
p416
(dp417
S'2000-01-01 00:04:34.059250'
p418
F0.734399986267
sS'2000-01-01 00:04:40.882429'
p419
F0.679199995995
sS'2000-01-01 00:04:49.892690'
p420
F0.678400011063
sS'2000-01-01 00:05:00.883662'
p421
F0.676000013351
sS'2000-01-01 00:05:00.093574'
p422
F0.676000013351
sS'2000-01-01 00:04:47.219235'
p423
F0.679199995995
sS'2000-01-01 00:04:32.575777'
p424
F0.73359995842
sS'2000-01-01 00:04:30.795216'
p425
F0.735200014114
sS'2000-01-01 00:05:07.999260'
p426
F0.676000013351
sS'2000-01-01 00:04:36.827831'
p427
F0.620799980164
sS'2000-01-01 00:04:36.630443'
p428
F0.614400014877
sS'2000-01-01 00:05:09.383240'
p429
F0.675199985504
sS'2000-01-01 00:04:31.190602'
p430
F0.734399986267
sS'2000-01-01 00:05:01.278591'
p431
F0.676000013351
sS'2000-01-01 00:04:58.604052'
p432
F0.676799998283
sS'2000-01-01 00:04:56.817698'
p433
F0.676799998283
sS'2000-01-01 00:05:07.802165'
p434
F0.676000013351
sS'2000-01-01 00:04:29.905103'
p435
F0.734399986267
sS'2000-01-01 00:04:29.410884'
p436
F0.735200014114
sS'2000-01-01 00:04:30.300694'
p437
F0.734399986267
sS'2000-01-01 00:04:31.983977'
p438
F0.734399986267
sS'2000-01-01 00:04:57.507923'
p439
F0.676000013351
sS'2000-01-01 00:05:08.493695'
p440
F0.676000013351
sS'2000-01-01 00:04:44.748815'
p441
F0.676000013351
sS'2000-01-01 00:04:34.651793'
p442
F0.718399987221
sS'2000-01-01 00:04:59.492944'
p443
F0.675199985504
sS'2000-01-01 00:04:41.281747'
p444
F0.678400011063
sS'2000-01-01 00:04:57.212499'
p445
F0.676000013351
sS'2000-01-01 00:05:02.169028'
p446
F0.676799998283
sS'2000-01-01 00:04:42.970070'
p447
F0.678400011063
sS'2000-01-01 00:04:59.790134'
p448
F0.676000013351
sS'2000-01-01 00:04:33.464619'
p449
F0.702399988174
sS'2000-01-01 00:05:09.185396'
p450
F0.676000013351
sS'2000-01-01 00:05:05.427409'
p451
F0.675199985504
sS'2000-01-01 00:04:43.364825'
p452
F0.676799998283
sS'2000-01-01 00:04:33.760021'
p453
F0.755200023651
sS'2000-01-01 00:05:05.625960'
p454
F0.676000013351
sS'2000-01-01 00:04:37.618384'
p455
F0.616800012589
sS'2000-01-01 00:04:54.248060'
p456
F0.676000013351
sS'2000-01-01 00:04:34.256434'
p457
F0.734399986267
sS'2000-01-01 00:04:52.172005'
p458
F0.678400011063
sS'2000-01-01 00:04:31.487721'
p459
F0.734399986267
sS'2000-01-01 00:05:08.790337'
p460
F0.676799998283
sS'2000-01-01 00:04:29.806678'
p461
F0.734399986267
sS'2000-01-01 00:04:45.440103'
p462
F0.678400011063
sS'2000-01-01 00:04:59.987456'
p463
F0.676799998283
sS'2000-01-01 00:05:00.193233'
p464
F0.676000013351
sS'2000-01-01 00:04:56.719216'
p465
F0.676000013351
sS'2000-01-01 00:04:31.882106'
p466
F0.734399986267
sS'2000-01-01 00:05:02.267459'
p467
F0.676799998283
sS'2000-01-01 00:04:32.674209'
p468
F0.734399986267
sS'2000-01-01 00:04:32.180950'
p469
F0.73359995842
sS'2000-01-01 00:05:03.156244'
p470
F0.676799998283
sS'2000-01-01 00:04:41.677839'
p471
F0.674400000572
sS'2000-01-01 00:04:45.735729'
p472
F0.679199995995
sS'2000-01-01 00:04:34.157804'
p473
F0.756799993515
sS'2000-01-01 00:04:58.209851'
p474
F0.676000013351
sS'2000-01-01 00:04:37.716713'
p475
F0.61759999752
sS'2000-01-01 00:04:31.387851'
p476
F0.734399986267
sS'2000-01-01 00:04:50.784987'
p477
F0.676799998283
sS'2000-01-01 00:04:44.650303'
p478
F0.678400011063
sS'2000-01-01 00:04:49.003361'
p479
F0.679199995995
sS'2000-01-01 00:05:06.713449'
p480
F0.676799998283
sS'2000-01-01 00:04:49.595613'
p481
F0.676799998283
sS'2000-01-01 00:04:56.521088'
p482
F0.674400000572
sS'2000-01-01 00:04:58.505652'
p483
F0.676000013351
sS'2000-01-01 00:04:56.027667'
p484
F0.676000013351
sS'2000-01-01 00:04:30.498790'
p485
F0.734399986267
sS'2000-01-01 00:04:55.136321'
p486
F0.676000013351
sS'2000-01-01 00:04:39.002035'
p487
F0.441600008011
sS'2000-01-01 00:04:31.684827'
p488
F0.734399986267
sS'2000-01-01 00:04:46.626652'
p489
F0.677599983215
sS'2000-01-01 00:05:04.045317'
p490
F0.675199985504
sS'2000-01-01 00:04:36.728892'
p491
F0.619999995232
sS'2000-01-01 00:04:59.295504'
p492
F0.676000013351
sS'2000-01-01 00:04:56.225836'
p493
F0.676000013351
sS'2000-01-01 00:05:01.773099'
p494
F0.676000013351
sS'2000-01-01 00:04:48.904908'
p495
F0.677599983215
sS'2000-01-01 00:04:49.398600'
p496
F0.678400011063
sS'2000-01-01 00:04:57.311034'
p497
F0.676000013351
sS'2000-01-01 00:04:29.213959'
p498
F0.734399986267
sS'2000-01-01 00:04:45.242303'
p499
F0.677599983215
sS'2000-01-01 00:04:47.615711'
p500
F0.678400011063
sS'2000-01-01 00:04:59.097320'
p501
F0.677599983215
sS'2000-01-01 00:04:45.538822'
p502
F0.676799998283
sS'2000-01-01 00:04:55.432873'
p503
F0.676000013351
sS'2000-01-01 00:04:52.073559'
p504
F0.677599983215
sS'2000-01-01 00:05:06.615074'
p505
F0.676799998283
sS'2000-01-01 00:04:29.016758'
p506
F0.734399986267
sS'2000-01-01 00:04:56.916135'
p507
F0.676000013351
sS'2000-01-01 00:05:05.032623'
p508
F0.676000013351
sS'2000-01-01 00:04:39.594480'
p509
F0.20319999218
sS'2000-01-01 00:04:54.939542'
p510
F0.676000013351
sS'2000-01-01 00:04:46.330927'
p511
F0.677599983215
sS'2000-01-01 00:04:48.509964'
p512
F0.679199995995
sS'2000-01-01 00:04:31.783506'
p513
F0.734399986267
sS'2000-01-01 00:04:58.308352'
p514
F0.676000013351
sS'2000-01-01 00:04:30.103995'
p515
F0.734399986267
sS'2000-01-01 00:04:34.848919'
p516
F0.720800027847
sS'2000-01-01 00:05:02.958288'
p517
F0.674400000572
sS'2000-01-01 00:04:57.903667'
p518
F0.676000013351
sS'2000-01-01 00:04:52.468472'
p519
F0.676799998283
sS'2000-01-01 00:05:01.080533'
p520
F0.676000013351
sS'2000-01-01 00:04:36.531979'
p521
F0.605600008965
sS'2000-01-01 00:05:07.305918'
p522
F0.676799998283
sS'2000-01-01 00:04:34.948408'
p523
F0.647999982834
sS'2000-01-01 00:04:47.417253'
p524
F0.677599983215
sS'2000-01-01 00:04:49.300186'
p525
F0.678400011063
sS'2000-01-01 00:04:48.312607'
p526
F0.677599983215
sS'2000-01-01 00:04:29.115117'
p527
F0.734399986267
sS'2000-01-01 00:05:04.835950'
p528
F0.676000013351
sS'2000-01-01 00:04:52.766201'
p529
F0.676000013351
sS'2000-01-01 00:04:34.553357'
p530
F0.722399997711
sS'2000-01-01 00:04:50.685425'
p531
F0.678400011063
sS'2000-01-01 00:04:53.159777'
p532
F0.676000013351
sS'2000-01-01 00:04:36.038469'
p533
F0.290400002003
sS'2000-01-01 00:04:54.148349'
p534
F0.676000013351
sS'2000-01-01 00:05:04.539397'
p535
F0.676799998283
sS'2000-01-01 00:04:30.894169'
p536
F0.731999988556
sS'2000-01-01 00:04:56.422592'
p537
F0.676000013351
sS'2000-01-01 00:05:03.353017'
p538
F0.676799998283
sS'2000-01-01 00:04:43.858935'
p539
F0.678400011063
sS'2000-01-01 00:04:53.456300'
p540
F0.674400000572
sS'2000-01-01 00:04:47.022282'
p541
F0.677599983215
sS'2000-01-01 00:04:49.497227'
p542
F0.679199995995
sS'2000-01-01 00:04:37.223416'
p543
F0.624000005722
sS'2000-01-01 00:05:05.132217'
p544
F0.676000013351
sS'2000-01-01 00:04:53.554715'
p545
F0.674400000572
sS'2000-01-01 00:04:53.357889'
p546
F0.67360001564
sS'2000-01-01 00:04:41.480905'
p547
F0.676000013351
sS'2000-01-01 00:04:40.091697'
p548
F0.452800011635
sS'2000-01-01 00:04:48.016007'
p549
F0.676000013351
sS'2000-01-01 00:04:49.794205'
p550
F0.677599983215
sS'2000-01-01 00:04:33.266850'
p551
F0.73359995842
sS'2000-01-01 00:04:32.477318'
p552
F0.734399986267
sS'2000-01-01 00:04:35.638807'
p553
F0.267999994755
sS'2000-01-01 00:04:52.666466'
p554
F0.675199985504
sS'2000-01-01 00:04:54.544539'
p555
F0.676000013351
sS'2000-01-01 00:04:40.288672'
p556
F0.574399995804
sS'2000-01-01 00:05:06.910879'
p557
F0.676799998283
sS'2000-01-01 00:04:53.851680'
p558
F0.676000013351
sS'2000-01-01 00:05:03.550938'
p559
F0.676000013351
sS'2000-01-01 00:04:39.693049'
p560
F0.198399996758
sS'2000-01-01 00:05:00.785285'
p561
F0.674400000572
sS'2000-01-01 00:04:32.871233'
p562
F0.734399986267
sS'2000-01-01 00:04:45.045487'
p563
F0.677599983215
sS'2000-01-01 00:05:00.390068'
p564
F0.676000013351
sS'2000-01-01 00:05:04.737550'
p565
F0.676799998283
sS'2000-01-01 00:04:41.579406'
p566
F0.674400000572
sS'2000-01-01 00:04:41.776537'
p567
F0.676000013351
sS'2000-01-01 00:04:46.528112'
p568
F0.677599983215
sS'2000-01-01 00:04:47.912958'
p569
F0.678400011063
sS'2000-01-01 00:05:01.377105'
p570
F0.676000013351
sS'2000-01-01 00:05:03.650560'
p571
F0.676000013351
sS'2000-01-01 00:04:52.864608'
p572
F0.674400000572
sS'2000-01-01 00:04:42.474177'
p573
F0.676000013351
sS'2000-01-01 00:04:55.927553'
p574
F0.676799998283
sS'2000-01-01 00:04:47.318802'
p575
F0.678400011063
sS'2000-01-01 00:05:04.145188'
p576
F0.676799998283
sS'2000-01-01 00:05:06.020253'
p577
F0.676799998283
sS'2000-01-01 00:04:58.010564'
p578
F0.676000013351
sS'2000-01-01 00:04:58.998850'
p579
F0.676799998283
sS'2000-01-01 00:05:04.639039'
p580
F0.676799998283
sS'2000-01-01 00:04:53.950029'
p581
F0.676000013351
sS'2000-01-01 00:04:38.508554'
p582
F0.61759999752
sS'2000-01-01 00:05:08.296562'
p583
F0.674400000572
sS'2000-01-01 00:04:47.516743'
p584
F0.676799998283
sS'2000-01-01 00:05:08.099480'
p585
F0.676000013351
sS'2000-01-01 00:04:30.597338'
p586
F0.734399986267
sS'2000-01-01 00:04:45.835569'
p587
F0.676799998283
sS'2000-01-01 00:04:51.673579'
p588
F0.678400011063
sS'2000-01-01 00:04:59.393907'
p589
F0.676000013351
sS'2000-01-01 00:04:37.124318'
p590
F0.620799980164
sS'2000-01-01 00:04:29.707647'
p591
F0.735200014114
sS'2000-01-01 00:04:55.334432'
p592
F0.676000013351
sS'2000-01-01 00:04:35.441403'
p593
F0.292799999714
sS'2000-01-01 00:05:07.503505'
p594
F0.676000013351
sS'2000-01-01 00:04:30.695804'
p595
F0.734399986267
sS'2000-01-01 00:04:37.520014'
p596
F0.61759999752
sS'2000-01-01 00:05:02.761345'
p597
F0.676799998283
sS'2000-01-01 00:05:02.563052'
p598
F0.676799998283
sS'2000-01-01 00:04:30.005496'
p599
F0.734399986267
sS'2000-01-01 00:04:33.563031'
p600
F0.801600008011
sS'2000-01-01 00:04:38.804049'
p601
F0.606399993896
sS'2000-01-01 00:04:55.828981'
p602
F0.676000013351
sS'2000-01-01 00:04:51.377098'
p603
F0.678400011063
sS'2000-01-01 00:04:34.354840'
p604
F0.732800016403
sS'2000-01-01 00:05:06.318492'
p605
F0.676799998283
sS'2000-01-01 00:04:51.773617'
p606
F0.678400011063
sS'2000-01-01 00:04:36.235507'
p607
F0.394399995804
sS'2000-01-01 00:04:43.660556'
p608
F0.676799998283
sS'2000-01-01 00:04:35.145125'
p609
F0.509600014687
sS'2000-01-01 00:04:55.630488'
p610
F0.676000013351
sS'2000-01-01 00:04:38.211582'
p611
F0.61759999752
sS'2000-01-01 00:04:33.858697'
p612
F0.731999988556
sS'2000-01-01 00:04:41.177844'
p613
F0.678400011063
sS'2000-01-01 00:04:45.637259'
p614
F0.678400011063
sS'2000-01-01 00:04:33.661409'
p615
F0.736799983978
sS'2000-01-01 00:05:03.452242'
p616
F0.675199985504
sS'2000-01-01 00:04:49.694012'
p617
F0.677599983215
sS'2000-01-01 00:04:33.365115'
p618
F0.73359995842
sS'2000-01-01 00:04:56.126311'
p619
F0.676799998283
sS'2000-01-01 00:04:59.591583'
p620
F0.676799998283
sS'2000-01-01 00:05:01.871622'
p621
F0.674400000572
sS'2000-01-01 00:04:59.888789'
p622
F0.676000013351
sS'2000-01-01 00:04:40.980932'
p623
F0.678400011063
sS'2000-01-01 00:05:09.086668'
p624
F0.676000013351
sS'2000-01-01 00:05:06.515560'
p625
F0.676000013351
sS'2000-01-01 00:04:46.824932'
p626
F0.677599983215
sS'2000-01-01 00:04:58.900517'
p627
F0.676799998283
sS'2000-01-01 00:04:48.706886'
p628
F0.677599983215
sS'2000-01-01 00:04:30.993828'
p629
F0.734399986267
sS'2000-01-01 00:04:37.025949'
p630
F0.6192000103
sS'2000-01-01 00:04:38.014773'
p631
F0.615199999809
sS'2000-01-01 00:04:50.981742'
p632
F0.677599983215
sS'2000-01-01 00:04:42.175914'
p633
F0.676000013351
sS'2000-01-01 00:04:55.037847'
p634
F0.676000013351
sS'2000-01-01 00:04:42.871560'
p635
F0.678400011063
sS'2000-01-01 00:04:47.814491'
p636
F0.679199995995
sS'2000-01-01 00:04:35.046737'
p637
F0.555999999046
sS'2000-01-01 00:04:39.297434'
p638
F0.279199998379
sS'2000-01-01 00:04:39.891760'
p639
F0.261600008011
sS'2000-01-01 00:05:07.108974'
p640
F0.676000013351
sS'2000-01-01 00:04:29.510905'
p641
F0.734399986267
sS'2000-01-01 00:05:01.180141'
p642
F0.677599983215
sS'2000-01-01 00:04:56.619602'
p643
F0.676000013351
sS'2000-01-01 00:05:04.243856'
p644
F0.676799998283
sS'2000-01-01 00:04:55.531913'
p645
F0.676000013351
sS'2000-01-01 00:04:30.399028'
p646
F0.734399986267
sS'2000-01-01 00:04:41.877614'
p647
F0.676000013351
sS'2000-01-01 00:04:38.705561'
p648
F0.616800012589
sS'2000-01-01 00:04:36.136959'
p649
F0.30879999876
sS'2000-01-01 00:04:48.410963'
p650
F0.677599983215
sS'2000-01-01 00:04:32.971545'
p651
F0.731999988556
sS'2000-01-01 00:04:53.259402'
p652
F0.675199985504
sS'2000-01-01 00:04:28.917256'
p653
F0.734399986267
sS'2000-01-01 00:04:44.156654'
p654
F0.678400011063
sS'2000-01-01 00:05:00.291656'
p655
F0.676799998283
sS'2000-01-01 00:04:40.190161'
p656
F0.54
sS'2000-01-01 00:05:04.440840'
p657
F0.676799998283
sS'2000-01-01 00:05:05.921877'
p658
F0.676799998283
sS'2000-01-01 00:04:34.750358'
p659
F0.722399997711
sS'2000-01-01 00:05:04.342283'
p660
F0.676000013351
sS'2000-01-01 00:04:33.168421'
p661
F0.735200014114
sS'2000-01-01 00:05:07.900686'
p662
F0.676000013351
sS'2000-01-01 00:05:07.703049'
p663
F0.676799998283
sS'2000-01-01 00:04:42.077518'
p664
F0.676000013351
sS'2000-01-01 00:04:50.093391'
p665
F0.676799998283
sS'2000-01-01 00:05:03.946547'
p666
F0.676799998283
sS'2000-01-01 00:04:58.703648'
p667
F0.676000013351
sS'2000-01-01 00:04:57.805102'
p668
F0.676799998283
sS'2000-01-01 00:04:40.487609'
p669
F0.676000013351
sS'2000-01-01 00:04:37.815794'
p670
F0.618399982452
sS'2000-01-01 00:04:40.586015'
p671
F0.679199995995
sS'2000-01-01 00:05:07.604620'
p672
F0.676000013351
sS'2000-01-01 00:05:06.812302'
p673
F0.676799998283
sS'2000-01-01 00:04:50.587096'
p674
F0.679199995995
sS'2000-01-01 00:04:57.014465'
p675
F0.676000013351
sS'2000-01-01 00:04:44.947014'
p676
F0.677599983215
sS'2000-01-01 00:04:28.818850'
p677
F0.73359995842
sS'2000-01-01 00:05:05.328968'
p678
F0.676799998283
sS'2000-01-01 00:04:31.288948'
p679
F0.734399986267
sS'2000-01-01 00:04:56.324227'
p680
F0.675199985504
sS'2000-01-01 00:05:00.686469'
p681
F0.677599983215
sS'2000-01-01 00:04:54.742678'
p682
F0.676799998283
sS'2000-01-01 00:04:50.291487'
p683
F0.679199995995
sS'2000-01-01 00:04:35.243533'
p684
F0.0863999980688
sS'2000-01-01 00:04:46.132922'
p685
F0.678400011063
sS'2000-01-01 00:04:48.114578'
p686
F0.678400011063
sS'2000-01-01 00:04:35.737195'
p687
F0.268800001144
sS'2000-01-01 00:04:35.939617'
p688
F0.272799990177
sS'2000-01-01 00:05:06.220016'
p689
F0.676799998283
sS'2000-01-01 00:04:46.923829'
p690
F0.676799998283
sS'2000-01-01 00:04:39.993053'
p691
F0.375999999046
sS'2000-01-01 00:04:40.388300'
p692
F0.635200009346
sS'2000-01-01 00:04:55.235942'
p693
F0.676000013351
sS'2000-01-01 00:04:38.409713'
p694
F0.615999984741
sS'2000-01-01 00:05:00.586994'
p695
F0.676000013351
sS'2000-01-01 00:04:43.562095'
p696
F0.677599983215
sS'2000-01-01 00:04:55.730100'
p697
F0.676799998283
sS'2000-01-01 00:04:53.061329'
p698
F0.676000013351
sS'2000-01-01 00:05:02.365888'
p699
F0.676000013351
sS'2000-01-01 00:04:43.759199'
p700
F0.677599983215
sS'2000-01-01 00:05:03.848095'
p701
F0.676000013351
sS'2000-01-01 00:04:37.915441'
p702
F0.576000008583
sS'2000-01-01 00:04:57.606310'
p703
F0.674400000572
sS'2000-01-01 00:04:29.609281'
p704
F0.734399986267
sS'2000-01-01 00:04:31.092218'
p705
F0.734399986267
sS'2000-01-01 00:04:58.802100'
p706
F0.676000013351
sS'2000-01-01 00:04:51.974598'
p707
F0.678400011063
sS'2000-01-01 00:05:01.476077'
p708
F0.676000013351
sS'2000-01-01 00:04:46.429395'
p709
F0.678400011063
sS'2000-01-01 00:04:57.409431'
p710
F0.676000013351
sS'2000-01-01 00:04:45.934054'
p711
F0.678400011063
sS'2000-01-01 00:05:05.724473'
p712
F0.676000013351
sS'2000-01-01 00:04:50.488580'
p713
F0.678400011063
sS'2000-01-01 00:04:45.143864'
p714
F0.678400011063
sS'2000-01-01 00:05:09.283938'
p715
F0.676000013351
sS'2000-01-01 00:04:44.453394'
p716
F0.678400011063
sS'2000-01-01 00:04:47.714263'
p717
F0.678400011063
sS'2000-01-01 00:04:52.963007'
p718
F0.675199985504
sS'2000-01-01 00:04:44.058110'
p719
F0.677599983215
sS'2000-01-01 00:05:01.970060'
p720
F0.676000013351
sS'2000-01-01 00:04:53.653087'
p721
F0.674400000572
sS'2000-01-01 00:04:50.389929'
p722
F0.677599983215
sS'2000-01-01 00:04:50.883375'
p723
F0.677599983215
sS'2000-01-01 00:04:48.806508'
p724
F0.678400011063
sS'2000-01-01 00:05:00.982156'
p725
F0.676000013351
sS'2000-01-01 00:04:39.198921'
p726
F0.304000003338
sS'2000-01-01 00:04:53.753114'
p727
F0.676000013351
sS'2000-01-01 00:04:38.903602'
p728
F0.519200005531
sS'2000-01-01 00:04:58.406721'
p729
F0.676000013351
sS'2000-01-01 00:04:42.673538'
p730
F0.678400011063
sS'2000-01-01 00:05:03.254612'
p731
F0.676799998283
sS'2000-01-01 00:04:46.231269'
p732
F0.678400011063
sS'2000-01-01 00:05:06.121442'
p733
F0.676000013351
sS'2000-01-01 00:04:43.265296'
p734
F0.678400011063
sS'2000-01-01 00:04:31.586309'
p735
F0.734399986267
sS'2000-01-01 00:04:54.346452'
p736
F0.676000013351
sS'2000-01-01 00:04:58.110174'
p737
F0.676000013351
sS'2000-01-01 00:05:08.987052'
p738
F0.676799998283
sS'2000-01-01 00:05:05.526229'
p739
F0.676799998283
sS'2000-01-01 00:04:40.684352'
p740
F0.679199995995
sS'2000-01-01 00:04:35.836259'
p741
F0.264000005722
sS'2000-01-01 00:04:48.213043'
p742
F0.678400011063
sS'2000-01-01 00:04:42.274277'
p743
F0.675199985504
sS'2000-01-01 00:05:03.749395'
p744
F0.676000013351
sS'2000-01-01 00:04:32.377717'
p745
F0.734399986267
sS'2000-01-01 00:04:42.373907'
p746
F0.676000013351
sS'2000-01-01 00:04:46.725075'
p747
F0.677599983215
sS'2000-01-01 00:04:49.200516'
p748
F0.678400011063
sS'2000-01-01 00:04:38.113190'
p749
F0.619999995232
sS'2000-01-01 00:04:38.607103'
p750
F0.61759999752
sS'2000-01-01 00:04:37.321946'
p751
F0.615999984741
sS'2000-01-01 00:04:36.433586'
p752
F0.536800017357
sS'2000-01-01 00:04:44.848508'
p753
F0.678400011063
sS'2000-01-01 00:04:52.369989'
p754
F0.676000013351
sS'2000-01-01 00:04:43.166810'
p755
F0.679199995995
sS'2000-01-01 00:04:54.049936'
p756
F0.676000013351
sS'2000-01-01 00:04:49.993848'
p757
F0.677599983215
sS'2000-01-01 00:04:51.872171'
p758
F0.678400011063
sS'2000-01-01 00:04:32.772817'
p759
F0.734399986267
sS'2000-01-01 00:05:02.464445'
p760
F0.676000013351
sS'2000-01-01 00:04:59.196977'
p761
F0.676000013351
sS'2000-01-01 00:04:39.396997'
p762
F0.238399994373
sS'2000-01-01 00:04:33.070028'
p763
F0.734399986267
sS'2000-01-01 00:05:07.009374'
p764
F0.676000013351
sS'2000-01-01 00:04:43.959301'
p765
F0.677599983215
sS'2000-01-01 00:04:39.792156'
p766
F0.211999998093
sS'2000-01-01 00:04:46.034395'
p767
F0.677599983215
sS'2000-01-01 00:04:40.782847'
p768
F0.679199995995
sS'2000-01-01 00:05:04.934247'
p769
F0.676000013351
sS'2000-01-01 00:05:00.488549'
p770
F0.676000013351
sS'2000-01-01 00:04:51.575064'
p771
F0.676799998283
sS'2000-01-01 00:04:54.445858'
p772
F0.676000013351
sS'2000-01-01 00:04:54.643031'
p773
F0.676000013351
sS'2000-01-01 00:04:30.202413'
p774
F0.73359995842
sS'2000-01-01 00:05:06.416851'
p775
F0.677599983215
sS'2000-01-01 00:04:32.279379'
p776
F0.732800016403
sS'2000-01-01 00:04:44.551918'
p777
F0.678400011063
sS'2000-01-01 00:04:52.271601'
p778
F0.675199985504
sS'2000-01-01 00:05:03.056736'
p779
F0.677599983215
sS'2000-01-01 00:04:41.079366'
p780
F0.677599983215
sS'2000-01-01 00:04:44.255218'
p781
F0.677599983215
sS'2000-01-01 00:05:05.823483'
p782
F0.676000013351
sS'2000-01-01 00:05:05.230634'
p783
F0.676000013351
sS'2000-01-01 00:05:01.674244'
p784
F0.676000013351
sS'2000-01-01 00:04:33.960605'
p785
F0.737600011826
sS'2000-01-01 00:04:51.178555'
p786
F0.676000013351
sS'2000-01-01 00:04:29.312368'
p787
F0.73359995842
sS'2000-01-01 00:05:08.197980'
p788
F0.676000013351
sS'2000-01-01 00:04:51.278248'
p789
F0.678400011063
sS'2000-01-01 00:04:49.101866'
p790
F0.678400011063
sS'2000-01-01 00:04:42.772019'
p791
F0.678400011063
sS'2000-01-01 00:04:41.382417'
p792
F0.676000013351
sS'2000-01-01 00:04:32.082525'
p793
F0.73359995842
sS'2000-01-01 00:04:28.720258'
p794
F0.73359995842
sS'2000-01-01 00:04:48.608486'
p795
F0.679199995995
sS'2000-01-01 00:05:07.404278'
p796
F0.676799998283
sS'2000-01-01 00:05:02.069164'
p797
F0.676000013351
sS'2000-01-01 00:04:35.341921'
p798
F0.38720000267
sS'2000-01-01 00:04:57.112908'
p799
F0.676000013351
sS'2000-01-01 00:05:08.691787'
p800
F0.677599983215
sS'2000-01-01 00:04:39.495865'
p801
F0.224000008106
sS'2000-01-01 00:04:51.080185'
p802
F0.678400011063
sS'2000-01-01 00:05:08.394989'
p803
F0.676000013351
sS'2000-01-01 00:04:43.463439'
p804
F0.677599983215
sS'2000-01-01 00:04:35.540350'
p805
F0.271199998856
sS'2000-01-01 00:04:36.927535'
p806
F0.619999995232
sS'2000-01-01 00:04:44.354808'
p807
F0.677599983215
sS'2000-01-01 00:05:02.662644'
p808
F0.677599983215
sS'2000-01-01 00:04:38.310060'
p809
F0.599200000763
sS'2000-01-01 00:05:08.888673'
p810
F0.676799998283
sS'2000-01-01 00:04:54.841117'
p811
F0.676000013351
sS'2000-01-01 00:05:08.593326'
p812
F0.676000013351
sS'2000-01-01 00:04:51.476647'
p813
F0.677599983215
sS'2000-01-01 00:04:57.705988'
p814
F0.676000013351
sS'2000-01-01 00:04:42.574872'
p815
F0.678400011063
sS'2000-01-01 00:04:43.068485'
p816
F0.677599983215
sS'2000-01-01 00:04:28.621198'
p817
F0.73359995842
sS'2000-01-01 00:04:37.421564'
p818
F0.6192000103
sS'2000-01-01 00:04:36.334099'
p819
F0.451999983788
sS'2000-01-01 00:04:47.120867'
p820
F0.676799998283
sS'2000-01-01 00:04:39.100360'
p821
F0.372800016403
sS'2000-01-01 00:04:50.191890'
p822
F0.677599983215
sS'2000-01-01 00:04:34.454778'
p823
F0.736000041962
sS'2000-01-01 00:04:45.341716'
p824
F0.676799998283
sS'2000-01-01 00:04:52.567876'
p825
F0.674400000572
sS'2000-01-01 00:05:02.859820'
p826
F0.676000013351
sS'2000-01-01 00:04:59.691155'
p827
F0.676000013351
sS'2000-01-01 00:05:01.574605'
p828
F0.676799998283
sS'2000-01-01 00:05:07.207426'
p829
F0.676000013351
sS'2000-01-01 00:04:41.978956'
p830
F0.676799998283
ssS'Accelerometer2'
p831
(dp832
S'2000-01-01 00:04:43.238532'
p833
(lp834
F-0.131034193368
aF-0.0896549224854
aF-1.19310313258
asS'2000-01-01 00:04:46.106048'
p835
(lp836
F-0.117241349714
aF-0.0896549224854
aF-1.17241349714
asS'2000-01-01 00:04:59.564809'
p837
(lp838
F-0.151723828809
aF-0.22068952692
aF-1.19310313258
asS'2000-01-01 00:05:00.166474'
p839
(lp840
F-0.158620620596
aF-0.213792735133
aF-1.19310313258
asS'2000-01-01 00:04:31.262205'
p841
(lp842
F-0.131034193368
aF-0.0896549224854
aF-1.23448240346
asS'2000-01-01 00:04:58.775325'
p843
(lp844
F-0.158620620596
aF-0.227586318707
aF-1.17931028892
asS'2000-01-01 00:04:48.976572'
p845
(lp846
F0.420689911678
aF-0.0758620788311
aF-0.993103569952
asS'2000-01-01 00:04:48.878166'
p847
(lp848
F0.39310348445
aF-0.124138141501
aF-1.06206926806
asS'2000-01-01 00:05:02.635884'
p849
(lp850
F-0.144827776942
aF-0.22068952692
aF-1.19310313258
asS'2000-01-01 00:04:46.995479'
p851
(lp852
F-0.124138141501
aF-0.0896549224854
aF-1.18620708071
asS'2000-01-01 00:05:02.142216'
p853
(lp854
F-0.158620620596
aF-0.227586318707
aF-1.19310313258
asS'2000-01-01 00:04:51.151744'
p855
(lp856
F-0.131034193368
aF-0.158620620596
aF-1.19310313258
asS'2000-01-01 00:04:45.808742'
p857
(lp858
F-0.137930985155
aF-0.0965517142723
aF-1.20689671615
asS'2000-01-01 00:04:40.163369'
p859
(lp860
F-0.124138141501
aF-0.0896549224854
aF-1.19310313258
asS'2000-01-01 00:05:05.499390'
p861
(lp862
F-0.144827776942
aF-0.213792735133
aF-1.19310313258
asS'2000-01-01 00:04:50.165137'
p863
(lp864
F-0.124138141501
aF-0.131034193368
aF-1.16551744527
asS'2000-01-01 00:04:46.204492'
p865
(lp866
F-0.131034193368
aF-0.0965517142723
aF-1.18620708071
asS'2000-01-01 00:04:54.715808'
p867
(lp868
F-0.151723828809
aF-0.206896683265
aF-1.18620708071
asS'2000-01-01 00:04:39.073596'
p869
(lp870
F-0.124138141501
aF-0.0896549224854
aF-1.18620708071
asS'2000-01-01 00:05:08.269794'
p871
(lp872
F-0.144827776942
aF-0.213792735133
aF-1.19999992436
asS'2000-01-01 00:05:03.227841'
p873
(lp874
F-0.158620620596
aF-0.227586318707
aF-1.19310313258
asS'2000-01-01 00:04:45.018726'
p875
(lp876
F-0.131034193368
aF-0.0896549224854
aF-1.18620708071
asS'2000-01-01 00:04:33.141685'
p877
(lp878
F-0.137930985155
aF-0.0896549224854
aF-1.22758635159
asS'2000-01-01 00:04:59.861885'
p879
(lp880
F-0.151723828809
aF-0.213792735133
aF-1.18620708071
asS'2000-01-01 00:04:40.064927'
p881
(lp882
F-0.131034193368
aF-0.0896549224854
aF-1.19310313258
asS'2000-01-01 00:04:54.221224'
p883
(lp884
F-0.193103099691
aF-0.151723828809
aF-1.32413773701
asS'2000-01-01 00:05:03.424598'
p885
(lp886
F-0.151723828809
aF-0.213792735133
aF-1.19310313258
asS'2000-01-01 00:04:44.821736'
p887
(lp888
F-0.151723828809
aF-0.117241349714
aF-1.18620708071
asS'2000-01-01 00:04:50.264731'
p889
(lp890
F-0.158620620596
aF-0.0965517142723
aF-1.16551744527
asS'2000-01-01 00:04:38.975196'
p891
(lp892
F-0.131034193368
aF-0.0896549224854
aF-1.18620708071
asS'2000-01-01 00:05:07.180588'
p893
(lp894
F-0.144827776942
aF-0.213792735133
aF-1.19999992436
asS'2000-01-01 00:04:34.328052'
p895
(lp896
F-0.131034193368
aF-0.0965517142723
aF-1.22758635159
asS'2000-01-01 00:05:07.972450'
p897
(lp898
F-0.165517412383
aF-0.22068952692
aF-1.19310313258
asS'2000-01-01 00:04:31.163862'
p899
(lp900
F-0.131034193368
aF-0.0896549224854
aF-1.23448240346
asS'2000-01-01 00:04:38.481721'
p901
(lp902
F-0.131034193368
aF-0.0965517142723
aF-1.19310313258
asS'2000-01-01 00:04:35.710373'
p903
(lp904
F-0.137930985155
aF-0.0896549224854
aF-1.2206895598
asS'2000-01-01 00:04:59.170097'
p905
(lp906
F-0.158620620596
aF-0.22068952692
aF-1.19999992436
asS'2000-01-01 00:05:02.042114'
p907
(lp908
F-0.158620620596
aF-0.22068952692
aF-1.19310313258
asS'2000-01-01 00:04:45.610523'
p909
(lp910
F-0.131034193368
aF-0.0965517142723
aF-1.17931028892
asS'2000-01-01 00:04:59.763202'
p911
(lp912
F-0.165517412383
aF-0.241379162361
aF-1.21379276802
asS'2000-01-01 00:04:40.559164'
p913
(lp914
F-0.124138141501
aF-0.0896549224854
aF-1.18620708071
asS'2000-01-01 00:04:30.570572'
p915
(lp916
F-0.131034193368
aF-0.0965517142723
aF-1.23448240346
asS'2000-01-01 00:04:36.011657'
p917
(lp918
F-0.137930985155
aF-0.110344557927
aF-1.21379276802
asS'2000-01-01 00:04:56.692463'
p919
(lp920
F-0.151723828809
aF-0.193103099691
aF-1.19310313258
asS'2000-01-01 00:04:53.824829'
p921
(lp922
F-0.262068797802
aF-0.351724131354
aF-1.19310313258
asS'2000-01-01 00:04:33.732977'
p923
(lp924
F-0.137930985155
aF-0.0896549224854
aF-1.2206895598
asS'2000-01-01 00:04:45.413361'
p925
(lp926
F-0.131034193368
aF-0.0896549224854
aF-1.18620708071
asS'2000-01-01 00:04:44.623535'
p927
(lp928
F-0.131034193368
aF-0.0896549224854
aF-1.19310313258
asS'2000-01-01 00:05:04.512505'
p929
(lp930
F-0.151723828809
aF-0.227586318707
aF-1.19310313258
asS'2000-01-01 00:04:49.470433'
p931
(lp932
F0.400000276237
aF-0.131034193368
aF-0.917241080054
asS'2000-01-01 00:05:03.821254'
p933
(lp934
F-0.151723828809
aF-0.213792735133
aF-1.19310313258
asS'2000-01-01 00:04:49.273375'
p935
(lp936
F0.46206918256
aF-0.124138141501
aF-1.02068999718
asS'2000-01-01 00:05:01.153394'
p937
(lp938
F-0.151723828809
aF-0.213792735133
aF-1.19310313258
asS'2000-01-01 00:04:53.725932'
p939
(lp940
F-0.213792735133
aF-0.50344837123
aF-1.0827589035
asS'2000-01-01 00:04:48.779744'
p941
(lp942
F0.337931369913
aF-0.131034193368
aF-1.07586211172
asS'2000-01-01 00:04:31.065493'
p943
(lp944
F-0.131034193368
aF-0.0827588706181
aF-1.23448240346
asS'2000-01-01 00:04:32.055779'
p945
(lp946
F-0.137930985155
aF-0.0965517142723
aF-1.24137919525
asS'2000-01-01 00:04:35.809355'
p947
(lp948
F-0.137930985155
aF-0.0965517142723
aF-1.22758635159
asS'2000-01-01 00:04:44.721953'
p949
(lp950
F-0.131034193368
aF-0.0965517142723
aF-1.19310313258
asS'2000-01-01 00:04:34.526607'
p951
(lp952
F-0.137930985155
aF-0.0965517142723
aF-1.22758635159
asS'2000-01-01 00:04:53.331045'
p953
(lp954
F-0.317241652259
aF-0.475861944001
aF-1.15172386169
asS'2000-01-01 00:04:31.361024'
p955
(lp956
F-0.131034193368
aF-0.0896549224854
aF-1.2206895598
asS'2000-01-01 00:04:36.406792'
p957
(lp958
F-0.144827776942
aF-0.0896549224854
aF-1.22758635159
asS'2000-01-01 00:04:30.471900'
p959
(lp960
F-0.131034193368
aF-0.0896549224854
aF-1.23448240346
asS'2000-01-01 00:04:47.390453'
p961
(lp962
F-0.131034193368
aF-0.0965517142723
aF-1.19310313258
asS'2000-01-01 00:04:47.787627'
p963
(lp964
F-0.144827776942
aF-0.144827776942
aF-1.2206895598
asS'2000-01-01 00:05:09.356403'
p965
(lp966
F-0.17241346425
aF-0.234483110494
aF-1.19999992436
asS'2000-01-01 00:04:37.394789'
p967
(lp968
F-0.131034193368
aF-0.0965517142723
aF-1.17931028892
asS'2000-01-01 00:05:03.129431'
p969
(lp970
F-0.151723828809
aF-0.22068952692
aF-1.19310313258
asS'2000-01-01 00:04:57.185702'
p971
(lp972
F-0.137930985155
aF-0.131034193368
aF-1.21379276802
asS'2000-01-01 00:04:38.382903'
p973
(lp974
F-0.151723828809
aF-0.117241349714
aF-1.18620708071
asS'2000-01-01 00:05:01.350187'
p975
(lp976
F-0.144827776942
aF-0.213792735133
aF-1.19310313258
asS'2000-01-01 00:04:51.646803'
p977
(lp978
F-0.158620620596
aF-0.144827776942
aF-1.21379276802
asS'2000-01-01 00:05:09.257164'
p979
(lp980
F-0.151723828809
aF-0.213792735133
aF-1.19310313258
asS'2000-01-01 00:05:05.796665'
p981
(lp982
F-0.144827776942
aF-0.213792735133
aF-1.19310313258
asS'2000-01-01 00:05:02.437521'
p983
(lp984
F-0.151723828809
aF-0.213792735133
aF-1.19310313258
asS'2000-01-01 00:04:57.975287'
p985
(lp986
F-0.151723828809
aF-0.22068952692
aF-1.21379276802
asS'2000-01-01 00:04:40.756063'
p987
(lp988
F-0.124138141501
aF-0.103448506059
aF-1.19310313258
asS'2000-01-01 00:04:46.304165'
p989
(lp990
F-0.131034193368
aF-0.103448506059
aF-1.18620708071
asS'2000-01-01 00:04:55.011084'
p991
(lp992
F-0.144827776942
aF-0.193103099691
aF-1.19310313258
asS'2000-01-01 00:04:39.370249'
p993
(lp994
F-0.131034193368
aF-0.0896549224854
aF-1.19310313258
asS'2000-01-01 00:04:32.647383'
p995
(lp996
F-0.137930985155
aF-0.0896549224854
aF-1.24137919525
asS'2000-01-01 00:04:56.987669'
p997
(lp998
F-0.137930985155
aF-0.0413795997357
aF-1.26896562247
asS'2000-01-01 00:04:41.052547'
p999
(lp1000
F-0.124138141501
aF-0.0896549224854
aF-1.18620708071
asS'2000-01-01 00:04:58.478858'
p1001
(lp1002
F-0.151723828809
aF-0.213792735133
aF-1.18620708071
asS'2000-01-01 00:04:45.708887'
p1003
(lp1004
F-0.137930985155
aF-0.103448506059
aF-1.16551744527
asS'2000-01-01 00:04:50.066579'
p1005
(lp1006
F-0.131034193368
aF-0.110344557927
aF-1.19310313258
asS'2000-01-01 00:04:36.900772'
p1007
(lp1008
F-0.137930985155
aF-0.0896549224854
aF-1.19310313258
asS'2000-01-01 00:05:02.833081'
p1009
(lp1010
F-0.151723828809
aF-0.206896683265
aF-1.19310313258
asS'2000-01-01 00:04:53.626298'
p1011
(lp1012
F-0.227586318707
aF-0.551724433899
aF-1.06206926806
asS'2000-01-01 00:04:56.790903'
p1013
(lp1014
F-0.151723828809
aF-0.193103099691
aF-1.19310313258
asS'2000-01-01 00:04:56.592849'
p1015
(lp1016
F-0.151723828809
aF-0.186207047824
aF-1.19310313258
asS'2000-01-01 00:04:46.402656'
p1017
(lp1018
F-0.137930985155
aF-0.0965517142723
aF-1.17931028892
asS'2000-01-01 00:04:54.319660'
p1019
(lp1020
F-0.151723828809
aF-0.213792735133
aF-1.19999992436
asS'2000-01-01 00:04:34.032479'
p1021
(lp1022
F-0.144827776942
aF-0.0965517142723
aF-1.21379276802
asS'2000-01-01 00:04:36.505188'
p1023
(lp1024
F-0.137930985155
aF-0.0896549224854
aF-1.21379276802
asS'2000-01-01 00:05:04.413897'
p1025
(lp1026
F-0.144827776942
aF-0.213792735133
aF-1.19310313258
asS'2000-01-01 00:05:08.466839'
p1027
(lp1028
F-0.151723828809
aF-0.213792735133
aF-1.19310313258
asS'2000-01-01 00:04:35.909097'
p1029
(lp1030
F-0.137930985155
aF-0.0965517142723
aF-1.22758635159
asS'2000-01-01 00:05:01.647431'
p1031
(lp1032
F-0.151723828809
aF-0.213792735133
aF-1.19310313258
asS'2000-01-01 00:04:34.921645'
p1033
(lp1034
F-0.144827776942
aF-0.103448506059
aF-1.22758635159
asS'2000-01-01 00:05:08.171183'
p1035
(lp1036
F-0.151723828809
aF-0.22068952692
aF-1.18620708071
asS'2000-01-01 00:04:56.395807'
p1037
(lp1038
F-0.144827776942
aF-0.193103099691
aF-1.19310313258
asS'2000-01-01 00:04:52.837833'
p1039
(lp1040
F-0.627586183877
aF-0.144827776942
aF-1.06206926806
asS'2000-01-01 00:04:59.466030'
p1041
(lp1042
F-0.151723828809
aF-0.213792735133
aF-1.19310313258
asS'2000-01-01 00:04:48.285748'
p1043
(lp1044
F0.0965517964856
aF-0.131034193368
aF-1.16551744527
asS'2000-01-01 00:04:32.745990'
p1045
(lp1046
F-0.137930985155
aF-0.0896549224854
aF-1.23448240346
asS'2000-01-01 00:04:42.247491'
p1047
(lp1048
F-0.151723828809
aF-0.117241349714
aF-1.20689671615
asS'2000-01-01 00:05:02.240683'
p1049
(lp1050
F-0.151723828809
aF-0.213792735133
aF-1.19310313258
asS'2000-01-01 00:04:56.297417'
p1051
(lp1052
F-0.144827776942
aF-0.193103099691
aF-1.19310313258
asS'2000-01-01 00:04:47.094105'
p1053
(lp1054
F-0.124138141501
aF-0.0896549224854
aF-1.18620708071
asS'2000-01-01 00:04:48.186176'
p1055
(lp1056
F0.0827589528314
aF-0.0896549224854
aF-1.15172386169
asS'2000-01-01 00:04:37.591603'
p1057
(lp1058
F-0.137930985155
aF-0.0965517142723
aF-1.18620708071
asS'2000-01-01 00:04:36.702058'
p1059
(lp1060
F-0.131034193368
aF-0.0896549224854
aF-1.17241349714
asS'2000-01-01 00:04:49.667260'
p1061
(lp1062
F0.165517494596
aF-0.110344557927
aF-1.26206883069
asS'2000-01-01 00:04:37.493268'
p1063
(lp1064
F-0.137930985155
aF-0.0896549224854
aF-1.18620708071
asS'2000-01-01 00:05:06.686725'
p1065
(lp1066
F-0.158620620596
aF-0.22068952692
aF-1.19310313258
asS'2000-01-01 00:04:33.437876'
p1067
(lp1068
F-0.137930985155
aF-0.0965517142723
aF-1.23448240346
asS'2000-01-01 00:05:08.861875'
p1069
(lp1070
F-0.151723828809
aF-0.22068952692
aF-1.19310313258
asS'2000-01-01 00:05:06.488763'
p1071
(lp1072
F-0.151723828809
aF-0.213792735133
aF-1.19310313258
asS'2000-01-01 00:04:54.023038'
p1073
(lp1074
F-0.137930985155
aF-0.282758433243
aF-1.21379276802
asS'2000-01-01 00:04:53.923231'
p1075
(lp1076
F-0.206896683265
aF-0.296552016817
aF-1.19310313258
asS'2000-01-01 00:04:40.657574'
p1077
(lp1078
F-0.124138141501
aF-0.0827588706181
aF-1.19310313258
asS'2000-01-01 00:04:30.669039'
p1079
(lp1080
F-0.131034193368
aF-0.0827588706181
aF-1.23448240346
asS'2000-01-01 00:04:48.087767'
p1081
(lp1082
F-0.0551724433899
aF-0.0896549224854
aF-1.27586241426
asS'2000-01-01 00:04:40.954183'
p1083
(lp1084
F-0.131034193368
aF-0.0965517142723
aF-1.18620708071
asS'2000-01-01 00:04:33.043264'
p1085
(lp1086
F-0.137930985155
aF-0.110344557927
aF-1.26896562247
asS'2000-01-01 00:04:29.582539'
p1087
(lp1088
F-0.131034193368
aF-0.0896549224854
aF-1.24137919525
asS'2000-01-01 00:04:41.150946'
p1089
(lp1090
F-0.124138141501
aF-0.0896549224854
aF-1.17931028892
asS'2000-01-01 00:04:33.634627'
p1091
(lp1092
F-0.137930985155
aF-0.0965517142723
aF-1.23448240346
asS'2000-01-01 00:04:58.972082'
p1093
(lp1094
F-0.144827776942
aF-0.213792735133
aF-1.19999992436
asS'2000-01-01 00:04:58.281595'
p1095
(lp1096
F-0.151723828809
aF-0.227586318707
aF-1.19310313258
asS'2000-01-01 00:04:53.429526'
p1097
(lp1098
F-0.255172745935
aF-0.489655527575
aF-1.13103422625
asS'2000-01-01 00:04:53.132985'
p1099
(lp1100
F-0.448275516773
aF-0.248275954148
aF-1.15172386169
asS'2000-01-01 00:05:07.082175'
p1101
(lp1102
F-0.151723828809
aF-0.22068952692
aF-1.19310313258
asS'2000-01-01 00:04:37.097542'
p1103
(lp1104
F-0.131034193368
aF-0.0896549224854
aF-1.17931028892
asS'2000-01-01 00:04:41.254321'
p1105
(lp1106
F-0.137930985155
aF-0.0965517142723
aF-1.17931028892
asS'2000-01-01 00:04:36.110069'
p1107
(lp1108
F-0.137930985155
aF-0.0896549224854
aF-1.2206895598
asS'2000-01-01 00:05:05.105424'
p1109
(lp1110
F-0.144827776942
aF-0.213792735133
aF-1.20689671615
asS'2000-01-01 00:04:50.658676'
p1111
(lp1112
F-0.144827776942
aF-0.117241349714
aF-1.18620708071
asS'2000-01-01 00:04:56.889284'
p1113
(lp1114
F-0.144827776942
aF-0.193103099691
aF-1.19310313258
asS'2000-01-01 00:04:46.599890'
p1115
(lp1116
F-0.124138141501
aF-0.0896549224854
aF-1.19310313258
asS'2000-01-01 00:05:05.895058'
p1117
(lp1118
F-0.151723828809
aF-0.22068952692
aF-1.19999992436
asS'2000-01-01 00:05:05.302212'
p1119
(lp1120
F-0.151723828809
aF-0.22068952692
aF-1.18620708071
asS'2000-01-01 00:04:52.739434'
p1121
(lp1122
F-0.627586183877
aF-0.144827776942
aF-0.986206778165
asS'2000-01-01 00:05:02.339140'
p1123
(lp1124
F-0.144827776942
aF-0.227586318707
aF-1.19310313258
asS'2000-01-01 00:04:47.886124'
p1125
(lp1126
F-0.137930985155
aF-0.103448506059
aF-1.23448240346
asS'2000-01-01 00:04:50.560330'
p1127
(lp1128
F-0.131034193368
aF-0.0965517142723
aF-1.18620708071
asS'2000-01-01 00:04:29.978674'
p1129
(lp1130
F-0.131034193368
aF-0.0896549224854
aF-1.24137919525
asS'2000-01-01 00:04:51.746671'
p1131
(lp1132
F-0.158620620596
aF-0.117241349714
aF-1.19310313258
asS'2000-01-01 00:04:53.232604'
p1133
(lp1134
F-0.365516975008
aF-0.303448068685
aF-1.19310313258
asS'2000-01-01 00:05:07.476630'
p1135
(lp1136
F-0.158620620596
aF-0.22068952692
aF-1.19310313258
asS'2000-01-01 00:04:51.053296'
p1137
(lp1138
F-0.186207047824
aF-0.0965517142723
aF-1.19310313258
asS'2000-01-01 00:05:07.377478'
p1139
(lp1140
F-0.151723828809
aF-0.213792735133
aF-1.19999992436
asS'2000-01-01 00:04:36.307226'
p1141
(lp1142
F-0.137930985155
aF-0.0965517142723
aF-1.22758635159
asS'2000-01-01 00:04:39.567675'
p1143
(lp1144
F-0.124138141501
aF-0.0827588706181
aF-1.18620708071
asS'2000-01-01 00:04:40.460812'
p1145
(lp1146
F-0.137930985155
aF-0.103448506059
aF-1.17931028892
asS'2000-01-01 00:04:29.484061'
p1147
(lp1148
F-0.131034193368
aF-0.0896549224854
aF-1.23448240346
asS'2000-01-01 00:05:04.315526'
p1149
(lp1150
F-0.144827776942
aF-0.213792735133
aF-1.19310313258
asS'2000-01-01 00:05:08.566507'
p1151
(lp1152
F-0.158620620596
aF-0.22068952692
aF-1.18620708071
asS'2000-01-01 00:04:39.966056'
p1153
(lp1154
F-0.124138141501
aF-0.0965517142723
aF-1.18620708071
asS'2000-01-01 00:04:55.802159'
p1155
(lp1156
F-0.151723828809
aF-0.193103099691
aF-1.18620708071
asS'2000-01-01 00:04:30.768139'
p1157
(lp1158
F-0.144827776942
aF-0.103448506059
aF-1.24827598703
asS'2000-01-01 00:04:36.208687'
p1159
(lp1160
F-0.158620620596
aF-0.103448506059
aF-1.24827598703
asS'2000-01-01 00:04:53.527887'
p1161
(lp1162
F-0.199999891478
aF-0.565517277553
aF-1.03448284083
asS'2000-01-01 00:04:37.295176'
p1163
(lp1164
F-0.144827776942
aF-0.117241349714
aF-1.21379276802
asS'2000-01-01 00:04:40.261872'
p1165
(lp1166
F-0.124138141501
aF-0.0896549224854
aF-1.18620708071
asS'2000-01-01 00:04:33.536298'
p1167
(lp1168
F-0.137930985155
aF-0.0896549224854
aF-1.24137919525
asS'2000-01-01 00:04:57.579518'
p1169
(lp1170
F-0.165517412383
aF-0.137930985155
aF-1.20689671615
asS'2000-01-01 00:04:45.117077'
p1171
(lp1172
F-0.131034193368
aF-0.0896549224854
aF-1.19310313258
asS'2000-01-01 00:04:50.758215'
p1173
(lp1174
F-0.151723828809
aF-0.124138141501
aF-1.17931028892
asS'2000-01-01 00:04:58.083324'
p1175
(lp1176
F-0.151723828809
aF-0.227586318707
aF-1.19310313258
asS'2000-01-01 00:05:06.785518'
p1177
(lp1178
F-0.17241346425
aF-0.234483110494
aF-1.20689671615
asS'2000-01-01 00:04:33.933564'
p1179
(lp1180
F-0.137930985155
aF-0.103448506059
aF-1.21379276802
asS'2000-01-01 00:04:55.406073'
p1181
(lp1182
F-0.151723828809
aF-0.193103099691
aF-1.19310313258
asS'2000-01-01 00:04:58.676890'
p1183
(lp1184
F-0.144827776942
aF-0.22068952692
aF-1.20689671615
asS'2000-01-01 00:05:04.018111'
p1185
(lp1186
F-0.165517412383
aF-0.241379162361
aF-1.19999992436
asS'2000-01-01 00:04:55.307683'
p1187
(lp1188
F-0.144827776942
aF-0.193103099691
aF-1.18620708071
asS'2000-01-01 00:04:42.347181'
p1189
(lp1190
F-0.158620620596
aF-0.110344557927
aF-1.19999992436
asS'2000-01-01 00:05:04.612215'
p1191
(lp1192
F-0.151723828809
aF-0.22068952692
aF-1.19310313258
asS'2000-01-01 00:04:51.449683'
p1193
(lp1194
F-0.137930985155
aF-0.103448506059
aF-1.21379276802
asS'2000-01-01 00:04:51.845362'
p1195
(lp1196
F-0.213792735133
aF-0.0689652870441
aF-1.18620708071
asS'2000-01-01 00:04:46.007536'
p1197
(lp1198
F-0.124138141501
aF-0.0896549224854
aF-1.17931028892
asS'2000-01-01 00:04:37.195858'
p1199
(lp1200
F-0.131034193368
aF-0.0965517142723
aF-1.18620708071
asS'2000-01-01 00:04:50.461603'
p1201
(lp1202
F-0.131034193368
aF-0.103448506059
aF-1.17931028892
asS'2000-01-01 00:04:42.943190'
p1203
(lp1204
F-0.131034193368
aF-0.0965517142723
aF-1.18620708071
asS'2000-01-01 00:04:52.244723'
p1205
(lp1206
F-0.365516975008
aF-0.117241349714
aF-1.16551744527
asS'2000-01-01 00:05:05.400659'
p1207
(lp1208
F-0.144827776942
aF-0.227586318707
aF-1.19310313258
asS'2000-01-01 00:04:47.687461'
p1209
(lp1210
F-0.117241349714
aF-0.0551724433899
aF-1.19310313258
asS'2000-01-01 00:05:02.734414'
p1211
(lp1212
F-0.151723828809
aF-0.22068952692
aF-1.19310313258
asS'2000-01-01 00:04:36.999212'
p1213
(lp1214
F-0.131034193368
aF-0.0896549224854
aF-1.19310313258
asS'2000-01-01 00:05:00.856888'
p1215
(lp1216
F-0.158620620596
aF-0.234483110494
aF-1.20689671615
asS'2000-01-01 00:04:44.920254'
p1217
(lp1218
F-0.131034193368
aF-0.0965517142723
aF-1.19310313258
asS'2000-01-01 00:04:35.315105'
p1219
(lp1220
F-0.137930985155
aF-0.0896549224854
aF-1.22758635159
asS'2000-01-01 00:04:36.603664'
p1221
(lp1222
F-0.137930985155
aF-0.0620692351769
aF-1.21379276802
asS'2000-01-01 00:04:45.314952'
p1223
(lp1224
F-0.137930985155
aF-0.0965517142723
aF-1.18620708071
asS'2000-01-01 00:05:09.158362'
p1225
(lp1226
F-0.158620620596
aF-0.22068952692
aF-1.19310313258
asS'2000-01-01 00:04:32.844416'
p1227
(lp1228
F-0.137930985155
aF-0.0965517142723
aF-1.24137919525
asS'2000-01-01 00:04:47.989008'
p1229
(lp1230
F-0.117241349714
aF-0.103448506059
aF-1.24137919525
asS'2000-01-01 00:04:52.145138'
p1231
(lp1232
F-0.3379312877
aF-0.117241349714
aF-1.15172386169
asS'2000-01-01 00:04:40.855636'
p1233
(lp1234
F-0.137930985155
aF-0.0896549224854
aF-1.18620708071
asS'2000-01-01 00:04:52.639620'
p1235
(lp1236
F-0.613793340223
aF-0.131034193368
aF-1.04827568449
asS'2000-01-01 00:04:35.513513'
p1237
(lp1238
F-0.151723828809
aF-0.0965517142723
aF-1.22758635159
asS'2000-01-01 00:05:08.664966'
p1239
(lp1240
F-0.158620620596
aF-0.213792735133
aF-1.19999992436
asS'2000-01-01 00:04:56.199039'
p1241
(lp1242
F-0.151723828809
aF-0.193103099691
aF-1.19310313258
asS'2000-01-01 00:04:38.184832'
p1243
(lp1244
F-0.137930985155
aF-0.0896549224854
aF-1.18620708071
asS'2000-01-01 00:05:07.577715'
p1245
(lp1246
F-0.151723828809
aF-0.22068952692
aF-1.19999992436
asS'2000-01-01 00:04:54.814327'
p1247
(lp1248
F-0.158620620596
aF-0.199999891478
aF-1.19999992436
asS'2000-01-01 00:05:05.005893'
p1249
(lp1250
F-0.151723828809
aF-0.213792735133
aF-1.20689671615
asS'2000-01-01 00:05:01.449197'
p1251
(lp1252
F-0.151723828809
aF-0.213792735133
aF-1.19310313258
asS'2000-01-01 00:05:01.746231'
p1253
(lp1254
F-0.151723828809
aF-0.22068952692
aF-1.19310313258
asS'2000-01-01 00:04:33.240059'
p1255
(lp1256
F-0.131034193368
aF-0.103448506059
aF-1.19310313258
asS'2000-01-01 00:04:43.140029'
p1257
(lp1258
F-0.137930985155
aF-0.0965517142723
aF-1.19310313258
asS'2000-01-01 00:04:55.703294'
p1259
(lp1260
F-0.151723828809
aF-0.193103099691
aF-1.18620708071
asS'2000-01-01 00:04:35.611943'
p1261
(lp1262
F-0.137930985155
aF-0.0896549224854
aF-1.23448240346
asS'2000-01-01 00:04:46.798101'
p1263
(lp1264
F-0.131034193368
aF-0.0965517142723
aF-1.19310313258
asS'2000-01-01 00:04:39.172052'
p1265
(lp1266
F-0.124138141501
aF-0.0896549224854
aF-1.18620708071
asS'2000-01-01 00:04:32.450537'
p1267
(lp1268
F-0.137930985155
aF-0.0965517142723
aF-1.24827598703
asS'2000-01-01 00:04:39.765298'
p1269
(lp1270
F-0.131034193368
aF-0.0896549224854
aF-1.19310313258
asS'2000-01-01 00:04:58.183101'
p1271
(lp1272
F-0.151723828809
aF-0.213792735133
aF-1.17931028892
asS'2000-01-01 00:04:49.767360'
p1273
(lp1274
F0.103448588273
aF-0.144827776942
aF-1.30344810157
asS'2000-01-01 00:04:34.723407'
p1275
(lp1276
F-0.137930985155
aF-0.0896549224854
aF-1.2206895598
asS'2000-01-01 00:04:49.966595'
p1277
(lp1278
F-0.0965517142723
aF-0.0827588706181
aF-1.27586241426
asS'2000-01-01 00:04:41.850701'
p1279
(lp1280
F-0.144827776942
aF-0.117241349714
aF-1.20689671615
asS'2000-01-01 00:04:51.251487'
p1281
(lp1282
F-0.165517412383
aF-0.0827588706181
aF-1.21379276802
asS'2000-01-01 00:04:55.603656'
p1283
(lp1284
F-0.151723828809
aF-0.193103099691
aF-1.18620708071
asS'2000-01-01 00:05:01.547775'
p1285
(lp1286
F-0.151723828809
aF-0.22068952692
aF-1.18620708071
asS'2000-01-01 00:04:43.338033'
p1287
(lp1288
F-0.137930985155
aF-0.0965517142723
aF-1.17931028892
asS'2000-01-01 00:04:34.130989'
p1289
(lp1290
F-0.124138141501
aF-0.0965517142723
aF-1.20689671615
asS'2000-01-01 00:04:59.367112'
p1291
(lp1292
F-0.151723828809
aF-0.213792735133
aF-1.16551744527
asS'2000-01-01 00:04:45.215451'
p1293
(lp1294
F-0.131034193368
aF-0.0965517142723
aF-1.18620708071
asS'2000-01-01 00:04:59.268751'
p1295
(lp1296
F-0.151723828809
aF-0.213792735133
aF-1.18620708071
asS'2000-01-01 00:04:49.568847'
p1297
(lp1298
F0.234482452787
aF-0.206896683265
aF-1.18620708071
asS'2000-01-01 00:04:54.419045'
p1299
(lp1300
F-0.165517412383
aF-0.22068952692
aF-1.20689671615
asS'2000-01-01 00:05:07.279117'
p1301
(lp1302
F-0.165517412383
aF-0.241379162361
aF-1.19999992436
asS'2000-01-01 00:05:08.072655'
p1303
(lp1304
F-0.158620620596
aF-0.213792735133
aF-1.19310313258
asS'2000-01-01 00:04:29.384090'
p1305
(lp1306
F-0.131034193368
aF-0.0896549224854
aF-1.24137919525
asS'2000-01-01 00:04:41.650989'
p1307
(lp1308
F-0.158620620596
aF-0.117241349714
aF-1.20689671615
asS'2000-01-01 00:04:38.580348'
p1309
(lp1310
F-0.131034193368
aF-0.0896549224854
aF-1.17931028892
asS'2000-01-01 00:05:00.461674'
p1311
(lp1312
F-0.151723828809
aF-0.213792735133
aF-1.18620708071
asS'2000-01-01 00:04:33.831869'
p1313
(lp1314
F-0.124138141501
aF-0.110344557927
aF-1.17931028892
asS'2000-01-01 00:04:49.074976'
p1315
(lp1316
F0.441379547119
aF-0.103448506059
aF-1.00689641361
asS'2000-01-01 00:04:34.427531'
p1317
(lp1318
F-0.137930985155
aF-0.0965517142723
aF-1.22758635159
asS'2000-01-01 00:05:00.066729'
p1319
(lp1320
F-0.158620620596
aF-0.22068952692
aF-1.19310313258
asS'2000-01-01 00:04:41.552589'
p1321
(lp1322
F-0.158620620596
aF-0.131034193368
aF-1.21379276802
asS'2000-01-01 00:04:38.283233'
p1323
(lp1324
F-0.131034193368
aF-0.0896549224854
aF-1.19310313258
asS'2000-01-01 00:04:56.494293'
p1325
(lp1326
F-0.151723828809
aF-0.206896683265
aF-1.19999992436
asS'2000-01-01 00:04:38.678811'
p1327
(lp1328
F-0.124138141501
aF-0.0896549224854
aF-1.19310313258
asS'2000-01-01 00:04:43.041638'
p1329
(lp1330
F-0.124138141501
aF-0.0896549224854
aF-1.18620708071
asS'2000-01-01 00:05:06.884095'
p1331
(lp1332
F-0.144827776942
aF-0.213792735133
aF-1.19310313258
asS'2000-01-01 00:04:51.943810'
p1333
(lp1334
F-0.179310256037
aF-0.110344557927
aF-1.21379276802
asS'2000-01-01 00:04:59.960631'
p1335
(lp1336
F-0.151723828809
aF-0.22068952692
aF-1.19310313258
asS'2000-01-01 00:04:37.689953'
p1337
(lp1338
F-0.124138141501
aF-0.0896549224854
aF-1.17931028892
asS'2000-01-01 00:04:39.270701'
p1339
(lp1340
F-0.131034193368
aF-0.0965517142723
aF-1.17931028892
asS'2000-01-01 00:04:57.876794'
p1341
(lp1342
F-0.131034193368
aF-0.255172745935
aF-1.27586241426
asS'2000-01-01 00:04:29.187088'
p1343
(lp1344
F-0.131034193368
aF-0.0827588706181
aF-1.22758635159
asS'2000-01-01 00:04:41.355520'
p1345
(lp1346
F-0.144827776942
aF-0.117241349714
aF-1.20689671615
asS'2000-01-01 00:04:55.505128'
p1347
(lp1348
F-0.144827776942
aF-0.193103099691
aF-1.17931028892
asS'2000-01-01 00:04:47.588908'
p1349
(lp1350
F-0.117241349714
aF-0.0551724433899
aF-1.18620708071
asS'2000-01-01 00:04:49.865820'
p1351
(lp1352
F-0.0413795997357
aF-0.0758620788311
aF-1.24137919525
asS'2000-01-01 00:04:57.284148'
p1353
(lp1354
F-0.137930985155
aF-0.22068952692
aF-1.14482780983
asS'2000-01-01 00:04:30.175610'
p1355
(lp1356
F-0.124138141501
aF-0.0896549224854
aF-1.22758635159
asS'2000-01-01 00:04:59.664389'
p1357
(lp1358
F-0.144827776942
aF-0.22068952692
aF-1.18620708071
asS'2000-01-01 00:04:53.034560'
p1359
(lp1360
F-0.496551579443
aF-0.17241346425
aF-1.18620708071
asS'2000-01-01 00:04:44.129807'
p1361
(lp1362
F-0.124138141501
aF-0.0896549224854
aF-1.18620708071
asS'2000-01-01 00:04:29.680920'
p1363
(lp1364
F-0.124138141501
aF-0.0896549224854
aF-1.23448240346
asS'2000-01-01 00:04:29.878318'
p1365
(lp1366
F-0.137930985155
aF-0.0896549224854
aF-1.24137919525
asS'2000-01-01 00:04:30.077247'
p1367
(lp1368
F-0.131034193368
aF-0.0965517142723
aF-1.22758635159
asS'2000-01-01 00:04:43.732255'
p1369
(lp1370
F-0.151723828809
aF-0.117241349714
aF-1.19999992436
asS'2000-01-01 00:04:39.666277'
p1371
(lp1372
F-0.124138141501
aF-0.0896549224854
aF-1.19310313258
asS'2000-01-01 00:04:35.216748'
p1373
(lp1374
F-0.137930985155
aF-0.0896549224854
aF-1.21379276802
asS'2000-01-01 00:04:35.414589'
p1375
(lp1376
F-0.144827776942
aF-0.0965517142723
aF-1.2206895598
asS'2000-01-01 00:04:49.173599'
p1377
(lp1378
F0.46206918256
aF-0.103448506059
aF-0.937930715495
asS'2000-01-01 00:04:32.252519'
p1379
(lp1380
F-0.137930985155
aF-0.0965517142723
aF-1.2206895598
asS'2000-01-01 00:04:35.118394'
p1381
(lp1382
F-0.158620620596
aF-0.110344557927
aF-1.24827598703
asS'2000-01-01 00:04:44.228403'
p1383
(lp1384
F-0.131034193368
aF-0.0965517142723
aF-1.18620708071
asS'2000-01-01 00:05:00.659765'
p1385
(lp1386
F-0.151723828809
aF-0.213792735133
aF-1.19310313258
asS'2000-01-01 00:05:05.993466'
p1387
(lp1388
F-0.151723828809
aF-0.213792735133
aF-1.17931028892
asS'2000-01-01 00:04:52.046728'
p1389
(lp1390
F-0.268965589589
aF-0.0965517142723
aF-1.16551744527
asS'2000-01-01 00:05:02.931490'
p1391
(lp1392
F-0.165517412383
aF-0.234483110494
aF-1.19999992436
asS'2000-01-01 00:04:37.987879'
p1393
(lp1394
F-0.158620620596
aF-0.0965517142723
aF-1.19310313258
asS'2000-01-01 00:04:40.361492'
p1395
(lp1396
F-0.137930985155
aF-0.0896549224854
aF-1.18620708071
asS'2000-01-01 00:04:31.957076'
p1397
(lp1398
F-0.158620620596
aF-0.124138141501
aF-1.23448240346
asS'2000-01-01 00:04:52.540952'
p1399
(lp1400
F-0.565517277553
aF-0.124138141501
aF-1.07586211172
asS'2000-01-01 00:04:54.616281'
p1401
(lp1402
F-0.151723828809
aF-0.193103099691
aF-1.19310313258
asS'2000-01-01 00:04:52.936163'
p1403
(lp1404
F-0.537930850325
aF-0.165517412383
aF-1.15862065348
asS'2000-01-01 00:05:01.251790'
p1405
(lp1406
F-0.158620620596
aF-0.213792735133
aF-1.19310313258
asS'2000-01-01 00:04:48.581685'
p1407
(lp1408
F0.310344942685
aF-0.0896549224854
aF-1.06206926806
asS'2000-01-01 00:05:05.697710'
p1409
(lp1410
F-0.151723828809
aF-0.213792735133
aF-1.19310313258
asS'2000-01-01 00:04:45.907304'
p1411
(lp1412
F-0.131034193368
aF-0.0896549224854
aF-1.19310313258
asS'2000-01-01 00:04:50.954972'
p1413
(lp1414
F-0.117241349714
aF-0.0965517142723
aF-1.16551744527
asS'2000-01-01 00:05:00.758341'
p1415
(lp1416
F-0.151723828809
aF-0.22068952692
aF-1.19310313258
asS'2000-01-01 00:05:01.844863'
p1417
(lp1418
F-0.151723828809
aF-0.213792735133
aF-1.19999992436
asS'2000-01-01 00:04:59.070575'
p1419
(lp1420
F-0.158620620596
aF-0.22068952692
aF-1.18620708071
asS'2000-01-01 00:04:32.548986'
p1421
(lp1422
F-0.137930985155
aF-0.0965517142723
aF-1.24137919525
asS'2000-01-01 00:04:50.363117'
p1423
(lp1424
F-0.131034193368
aF-0.103448506059
aF-1.17931028892
asS'2000-01-01 00:04:58.577330'
p1425
(lp1426
F-0.151723828809
aF-0.22068952692
aF-1.18620708071
asS'2000-01-01 00:05:06.193214'
p1427
(lp1428
F-0.17241346425
aF-0.241379162361
aF-1.20689671615
asS'2000-01-01 00:04:41.749603'
p1429
(lp1430
F-0.151723828809
aF-0.117241349714
aF-1.20689671615
asS'2000-01-01 00:05:06.390100'
p1431
(lp1432
F-0.144827776942
aF-0.213792735133
aF-1.18620708071
asS'2000-01-01 00:04:50.856630'
p1433
(lp1434
F-0.131034193368
aF-0.110344557927
aF-1.17931028892
asS'2000-01-01 00:05:07.775318'
p1435
(lp1436
F-0.151723828809
aF-0.213792735133
aF-1.19310313258
asS'2000-01-01 00:04:47.291980'
p1437
(lp1438
F-0.131034193368
aF-0.0965517142723
aF-1.19310313258
asS'2000-01-01 00:04:57.481022'
p1439
(lp1440
F-0.151723828809
aF-0.144827776942
aF-1.21379276802
asS'2000-01-01 00:05:04.809142'
p1441
(lp1442
F-0.144827776942
aF-0.213792735133
aF-1.18620708071
asS'2000-01-01 00:04:34.625022'
p1443
(lp1444
F-0.131034193368
aF-0.103448506059
aF-1.20689671615
asS'2000-01-01 00:04:42.547232'
p1445
(lp1446
F-0.144827776942
aF-0.103448506059
aF-1.20689671615
asS'2000-01-01 00:04:51.350025'
p1447
(lp1448
F-0.131034193368
aF-0.0965517142723
aF-1.19310313258
asS'2000-01-01 00:04:42.149101'
p1449
(lp1450
F-0.144827776942
aF-0.117241349714
aF-1.19310313258
asS'2000-01-01 00:04:30.273960'
p1451
(lp1452
F-0.124138141501
aF-0.0896549224854
aF-1.22758635159
asS'2000-01-01 00:05:00.560198'
p1453
(lp1454
F-0.144827776942
aF-0.22068952692
aF-1.19310313258
asS'2000-01-01 00:04:58.873673'
p1455
(lp1456
F-0.144827776942
aF-0.213792735133
aF-1.17931028892
asS'2000-01-01 00:04:57.086138'
p1457
(lp1458
F-0.137930985155
aF-0.124138141501
aF-1.18620708071
asS'2000-01-01 00:04:44.525138'
p1459
(lp1460
F-0.124138141501
aF-0.0965517142723
aF-1.17931028892
asS'2000-01-01 00:05:03.524077'
p1461
(lp1462
F-0.151723828809
aF-0.213792735133
aF-1.19310313258
asS'2000-01-01 00:04:51.548314'
p1463
(lp1464
F-0.158620620596
aF-0.131034193368
aF-1.18620708071
asS'2000-01-01 00:04:42.745255'
p1465
(lp1466
F-0.131034193368
aF-0.0965517142723
aF-1.19999992436
asS'2000-01-01 00:04:29.285608'
p1467
(lp1468
F-0.137930985155
aF-0.0827588706181
aF-1.22758635159
asS'2000-01-01 00:04:42.446630'
p1469
(lp1470
F-0.151723828809
aF-0.124138141501
aF-1.20689671615
asS'2000-01-01 00:04:43.436443'
p1471
(lp1472
F-0.131034193368
aF-0.0965517142723
aF-1.19310313258
asS'2000-01-01 00:04:37.888676'
p1473
(lp1474
F-0.137930985155
aF-0.0965517142723
aF-1.18620708071
asS'2000-01-01 00:05:03.722197'
p1475
(lp1476
F-0.158620620596
aF-0.213792735133
aF-1.19310313258
asS'2000-01-01 00:04:56.099499'
p1477
(lp1478
F-0.144827776942
aF-0.193103099691
aF-1.19310313258
asS'2000-01-01 00:04:29.088370'
p1479
(lp1480
F-0.124138141501
aF-0.0896549224854
aF-1.24137919525
asS'2000-01-01 00:05:08.960258'
p1481
(lp1482
F-0.158620620596
aF-0.213792735133
aF-1.19310313258
asS'2000-01-01 00:04:31.756508'
p1483
(lp1484
F-0.131034193368
aF-0.0896549224854
aF-1.23448240346
asS'2000-01-01 00:05:06.982589'
p1485
(lp1486
F-0.144827776942
aF-0.22068952692
aF-1.19999992436
asS'2000-01-01 00:04:28.890460'
p1487
(lp1488
F-0.137930985155
aF-0.0896549224854
aF-1.24137919525
asS'2000-01-01 00:04:29.779805'
p1489
(lp1490
F-0.151723828809
aF-0.110344557927
aF-1.24137919525
asS'2000-01-01 00:04:38.086418'
p1491
(lp1492
F-0.124138141501
aF-0.0827588706181
aF-1.17931028892
asS'2000-01-01 00:05:04.118426'
p1493
(lp1494
F-0.17241346425
aF-0.234483110494
aF-1.19310313258
asS'2000-01-01 00:05:03.623713'
p1495
(lp1496
F-0.158620620596
aF-0.22068952692
aF-1.19310313258
asS'2000-01-01 00:04:31.658011'
p1497
(lp1498
F-0.131034193368
aF-0.0896549224854
aF-1.21379276802
asS'2000-01-01 00:05:06.291619'
p1499
(lp1500
F-0.144827776942
aF-0.22068952692
aF-1.17931028892
asS'2000-01-01 00:05:05.203809'
p1501
(lp1502
F-0.151723828809
aF-0.22068952692
aF-1.19310313258
asS'2000-01-01 00:04:48.680129'
p1503
(lp1504
F0.34482742178
aF-0.103448506059
aF-1.06896531993
asS'2000-01-01 00:05:01.053790'
p1505
(lp1506
F-0.151723828809
aF-0.213792735133
aF-1.19999992436
asS'2000-01-01 00:04:48.483060'
p1507
(lp1508
F0.248276036361
aF-0.137930985155
aF-1.10344853894
asS'2000-01-01 00:04:42.646714'
p1509
(lp1510
F-0.131034193368
aF-0.0965517142723
aF-1.19310313258
asS'2000-01-01 00:04:48.384169'
p1511
(lp1512
F0.220689609133
aF-0.124138141501
aF-1.0827589035
asS'2000-01-01 00:04:31.559421'
p1513
(lp1514
F-0.137930985155
aF-0.0965517142723
aF-1.24137919525
asS'2000-01-01 00:04:46.698328'
p1515
(lp1516
F-0.131034193368
aF-0.0965517142723
aF-1.19310313258
asS'2000-01-01 00:04:42.050725'
p1517
(lp1518
F-0.144827776942
aF-0.117241349714
aF-1.19999992436
asS'2000-01-01 00:04:44.031263'
p1519
(lp1520
F-0.124138141501
aF-0.0896549224854
aF-1.17931028892
asS'2000-01-01 00:04:43.633703'
p1521
(lp1522
F-0.124138141501
aF-0.0896549224854
aF-1.17931028892
asS'2000-01-01 00:04:39.468956'
p1523
(lp1524
F-0.131034193368
aF-0.0896549224854
aF-1.19310313258
asS'2000-01-01 00:05:04.217079'
p1525
(lp1526
F-0.151723828809
aF-0.213792735133
aF-1.19999992436
asS'2000-01-01 00:04:28.989954'
p1527
(lp1528
F-0.137930985155
aF-0.0896549224854
aF-1.24137919525
asS'2000-01-01 00:04:34.822102'
p1529
(lp1530
F-0.144827776942
aF-0.0896549224854
aF-1.23448240346
asS'2000-01-01 00:04:35.019984'
p1531
(lp1532
F-0.144827776942
aF-0.0965517142723
aF-1.23448240346
asS'2000-01-01 00:04:58.380000'
p1533
(lp1534
F-0.144827776942
aF-0.213792735133
aF-1.19310313258
asS'2000-01-01 00:04:28.792097'
p1535
(lp1536
F-0.131034193368
aF-0.0896549224854
aF-1.23448240346
asS'2000-01-01 00:05:00.363312'
p1537
(lp1538
F-0.144827776942
aF-0.213792735133
aF-1.19310313258
asS'2000-01-01 00:04:52.441722'
p1539
(lp1540
F-0.489655527575
aF-0.110344557927
aF-1.10344853894
asS'2000-01-01 00:04:41.454161'
p1541
(lp1542
F-0.137930985155
aF-0.110344557927
aF-1.20689671615
asS'2000-01-01 00:05:07.676282'
p1543
(lp1544
F-0.158620620596
aF-0.22068952692
aF-1.19310313258
asS'2000-01-01 00:05:02.536291'
p1545
(lp1546
F-0.151723828809
aF-0.22068952692
aF-1.18620708071
asS'2000-01-01 00:04:43.832125'
p1547
(lp1548
F-0.137930985155
aF-0.0965517142723
aF-1.19310313258
asS'2000-01-01 00:04:31.855266'
p1549
(lp1550
F-0.137930985155
aF-0.0965517142723
aF-1.23448240346
asS'2000-01-01 00:04:57.778219'
p1551
(lp1552
F-0.17241346425
aF-0.144827776942
aF-1.21379276802
asS'2000-01-01 00:04:52.343204'
p1553
(lp1554
F-0.427585881332
aF-0.131034193368
aF-1.15172386169
asS'2000-01-01 00:04:47.192490'
p1555
(lp1556
F-0.131034193368
aF-0.0965517142723
aF-1.18620708071
asS'2000-01-01 00:04:55.209145'
p1557
(lp1558
F-0.144827776942
aF-0.193103099691
aF-1.19999992436
asS'2000-01-01 00:04:54.121589'
p1559
(lp1560
F-0.17241346425
aF-0.331034495913
aF-1.19999992436
asS'2000-01-01 00:04:43.930579'
p1561
(lp1562
F-0.137930985155
aF-0.0965517142723
aF-1.19310313258
asS'2000-01-01 00:04:38.777253'
p1563
(lp1564
F-0.131034193368
aF-0.0896549224854
aF-1.19310313258
asS'2000-01-01 00:05:03.919758'
p1565
(lp1566
F-0.144827776942
aF-0.213792735133
aF-1.19310313258
asS'2000-01-01 00:04:42.844829'
p1567
(lp1568
F-0.137930985155
aF-0.0965517142723
aF-1.18620708071
asS'2000-01-01 00:04:57.382659'
p1569
(lp1570
F-0.124138141501
aF-0.22068952692
aF-1.03448284083
asS'2000-01-01 00:04:55.109531'
p1571
(lp1572
F-0.137930985155
aF-0.193103099691
aF-1.18620708071
asS'2000-01-01 00:04:36.800987'
p1573
(lp1574
F-0.137930985155
aF-0.0965517142723
aF-1.19310313258
asS'2000-01-01 00:04:54.912683'
p1575
(lp1576
F-0.144827776942
aF-0.193103099691
aF-1.17931028892
asS'2000-01-01 00:04:54.517710'
p1577
(lp1578
F-0.144827776942
aF-0.193103099691
aF-1.18620708071
asS'2000-01-01 00:04:32.350929'
p1579
(lp1580
F-0.137930985155
aF-0.0965517142723
aF-1.23448240346
asS'2000-01-01 00:04:39.864947'
p1581
(lp1582
F-0.124138141501
aF-0.0896549224854
aF-1.19310313258
asS'2000-01-01 00:04:30.967049'
p1583
(lp1584
F-0.131034193368
aF-0.0896549224854
aF-1.21379276802
asS'2000-01-01 00:04:41.951786'
p1585
(lp1586
F-0.151723828809
aF-0.117241349714
aF-1.20689671615
asS'2000-01-01 00:04:30.372288'
p1587
(lp1588
F-0.131034193368
aF-0.0896549224854
aF-1.2206895598
asS'2000-01-01 00:05:07.873820'
p1589
(lp1590
F-0.151723828809
aF-0.22068952692
aF-1.19310313258
asS'2000-01-01 00:04:32.944775'
p1591
(lp1592
F-0.137930985155
aF-0.110344557927
aF-1.26206883069
asS'2000-01-01 00:04:38.876800'
p1593
(lp1594
F-0.137930985155
aF-0.0896549224854
aF-1.18620708071
asS'2000-01-01 00:04:43.535261'
p1595
(lp1596
F-0.131034193368
aF-0.0965517142723
aF-1.19310313258
asS'2000-01-01 00:05:03.029887'
p1597
(lp1598
F-0.151723828809
aF-0.22068952692
aF-1.19310313258
asS'2000-01-01 00:04:44.328011'
p1599
(lp1600
F-0.131034193368
aF-0.0965517142723
aF-1.19999992436
asS'2000-01-01 00:05:06.093813'
p1601
(lp1602
F-0.158620620596
aF-0.22068952692
aF-1.19310313258
asS'2000-01-01 00:05:03.326222'
p1603
(lp1604
F-0.151723828809
aF-0.213792735133
aF-1.19310313258
asS'2000-01-01 00:04:56.000491'
p1605
(lp1606
F-0.151723828809
aF-0.193103099691
aF-1.19310313258
asS'2000-01-01 00:05:00.955388'
p1607
(lp1608
F-0.151723828809
aF-0.213792735133
aF-1.19999992436
asS'2000-01-01 00:04:47.489478'
p1609
(lp1610
F-0.124138141501
aF-0.0896549224854
aF-1.19310313258
asS'2000-01-01 00:04:28.693426'
p1611
(lp1612
F-0.137930985155
aF-0.103448506059
aF-1.24137919525
asS'2000-01-01 00:05:08.368242'
p1613
(lp1614
F-0.151723828809
aF-0.22068952692
aF-1.19310313258
asS'2000-01-01 00:05:04.710721'
p1615
(lp1616
F-0.151723828809
aF-0.213792735133
aF-1.19310313258
asS'2000-01-01 00:05:04.907507'
p1617
(lp1618
F-0.151723828809
aF-0.213792735133
aF-1.19310313258
asS'2000-01-01 00:04:31.460793'
p1619
(lp1620
F-0.131034193368
aF-0.0965517142723
aF-1.24827598703
asS'2000-01-01 00:04:49.371764'
p1621
(lp1622
F0.46206918256
aF-0.0827588706181
aF-0.944827507282
asS'2000-01-01 00:04:55.900795'
p1623
(lp1624
F-0.144827776942
aF-0.193103099691
aF-1.17931028892
asS'2000-01-01 00:04:57.679242'
p1625
(lp1626
F-0.186207047824
aF-0.165517412383
aF-1.20689671615
asS'2000-01-01 00:04:30.867348'
p1627
(lp1628
F-0.144827776942
aF-0.110344557927
aF-1.24827598703
asS'2000-01-01 00:05:05.599201'
p1629
(lp1630
F-0.158620620596
aF-0.227586318707
aF-1.19310313258
asS'2000-01-01 00:05:06.588324'
p1631
(lp1632
F-0.151723828809
aF-0.22068952692
aF-1.19310313258
asS'2000-01-01 00:04:46.501301'
p1633
(lp1634
F-0.117241349714
aF-0.103448506059
aF-1.17241349714
asS'2000-01-01 00:04:44.426450'
p1635
(lp1636
F-0.137930985155
aF-0.0896549224854
aF-1.19310313258
asS'2000-01-01 00:04:45.512042'
p1637
(lp1638
F-0.124138141501
aF-0.103448506059
aF-1.19310313258
asS'2000-01-01 00:05:00.264914'
p1639
(lp1640
F-0.151723828809
aF-0.22068952692
aF-1.18620708071
asS'2000-01-01 00:04:33.338377'
p1641
(lp1642
F-0.137930985155
aF-0.103448506059
aF-1.22758635159
asS'2000-01-01 00:05:08.763533'
p1643
(lp1644
F-0.144827776942
aF-0.213792735133
aF-1.18620708071
asS'2000-01-01 00:05:09.059888'
p1645
(lp1646
F-0.151723828809
aF-0.213792735133
aF-1.19999992436
asS'2000-01-01 00:04:37.788985'
p1647
(lp1648
F-0.131034193368
aF-0.0965517142723
aF-1.19310313258
asS'2000-01-01 00:04:46.896805'
p1649
(lp1650
F-0.144827776942
aF-0.117241349714
aF-1.20689671615
asS'2000-01-01 00:04:34.229673'
p1651
(lp1652
F-0.137930985155
aF-0.0965517142723
aF-1.24137919525
asS'2000-01-01 00:04:32.154153'
p1653
(lp1654
F-0.137930985155
aF-0.0965517142723
aF-1.2206895598
asS'2000-01-01 00:05:01.943258'
p1655
(lp1656
F-0.151723828809
aF-0.213792735133
aF-1.19310313258
assS'HallEffectSensor3'
p1657
(dp1658
S'2000-01-01 00:04:40.112213'
p1659
(lp1660
F3313.01856178
aF20.1539724278
asS'2000-01-01 00:04:55.552536'
p1661
(lp1662
F1706.47895378
aF10.3809650147
asS'2000-01-01 00:04:41.302333'
p1663
(lp1664
F3518.67317423
aF21.4050240931
asS'2000-01-01 00:05:09.403749'
p1665
(lp1666
F3165.94585835
aF19.2592900846
asS'2000-01-01 00:05:05.448128'
p1667
(lp1668
F2052.32011869
aF12.4848087367
asS'2000-01-01 00:05:06.141980'
p1669
(lp1670
F2279.07224073
aF13.86420216
asS'2000-01-01 00:04:48.727401'
p1671
(lp1672
F3514.16036822
aF21.3775714947
asS'2000-01-01 00:04:55.453588'
p1673
(lp1674
F1741.55628932
aF10.5943497695
asS'2000-01-01 00:04:38.232186'
p1675
(lp1676
F2884.95533654
aF17.5499500603
asS'2000-01-01 00:04:40.013706'
p1677
(lp1678
F3293.63864106
aF20.0360792193
asS'2000-01-01 00:05:03.967054'
p1679
(lp1680
F1533.64483815
aF9.32956915445
asS'2000-01-01 00:04:29.827227'
p1681
(lp1682
F68.7136830606
aF0.418003596415
asS'2000-01-01 00:04:46.647169'
p1683
(lp1684
F3743.60288047
aF22.7733312768
asS'2000-01-01 00:04:31.705340'
p1685
(lp1686
F675.046173039
aF4.10648528078
asS'2000-01-01 00:05:02.287977'
p1687
(lp1688
F901.815351934
aF5.4859824655
asS'2000-01-01 00:04:30.124500'
p1689
(lp1690
F49.5753471357
aF0.301580012498
asS'2000-01-01 00:04:59.316009'
p1691
(lp1692
F271.917998542
aF1.65414945405
asS'2000-01-01 00:04:52.786721'
p1693
(lp1694
F2605.10327922
aF15.847535618
asS'2000-01-01 00:04:46.153434'
p1695
(lp1696
F3772.30922126
aF22.9479595772
asS'2000-01-01 00:04:46.745586'
p1697
(lp1698
F3736.68233897
aF22.7312317835
asS'2000-01-01 00:04:40.704964'
p1699
(lp1700
F3422.08547971
aF20.8174554768
asS'2000-01-01 00:04:29.037264'
p1701
(lp1702
F382.422502276
aF2.32637771956
asS'2000-01-01 00:04:59.909309'
p1703
(lp1704
F36.0547536484
aF0.219330648883
asS'2000-01-01 00:04:47.537539'
p1705
(lp1706
F3666.61214101
aF22.3049761464
asS'2000-01-01 00:04:36.157476'
p1707
(lp1708
F2284.00478206
aF13.8942081199
asS'2000-01-01 00:04:32.992137'
p1709
(lp1710
F1171.32092513
aF7.125456495
asS'2000-01-01 00:04:32.596279'
p1711
(lp1712
F1020.50243715
aF6.20798754886
asS'2000-01-01 00:04:59.217534'
p1713
(lp1714
F310.986675939
aF1.89181460212
asS'2000-01-01 00:04:31.408368'
p1715
(lp1716
F558.444541133
aF3.39716656413
asS'2000-01-01 00:04:33.385622'
p1717
(lp1718
F1319.24245242
aF8.02530245933
asS'2000-01-01 00:04:53.673686'
p1719
(lp1720
F2337.28455936
aF14.2183231656
asS'2000-01-01 00:04:39.812682'
p1721
(lp1722
F3253.01412222
aF19.7889494743
asS'2000-01-01 00:05:05.053137'
p1723
(lp1724
F1918.31356078
aF11.6696112294
asS'2000-01-01 00:04:51.995302'
p1725
(lp1726
F2825.1729946
aF17.1862781856
asS'2000-01-01 00:04:57.133415'
p1727
(lp1728
F1123.62724115
aF6.83532313958
asS'2000-01-01 00:05:06.437457'
p1729
(lp1730
F2372.05109707
aF14.4298172546
asS'2000-01-01 00:04:42.892062'
p1731
(lp1732
F3707.80091907
aF22.5555384303
asS'2000-01-01 00:04:58.624562'
p1733
(lp1734
F545.409798547
aF3.31787276067
asS'2000-01-01 00:04:34.178435'
p1735
(lp1736
F1610.22848165
aF9.79544781183
asS'2000-01-01 00:04:34.869437'
p1737
(lp1738
F1854.85812871
aF11.2835949713
asS'2000-01-01 00:04:36.256040'
p1739
(lp1740
F2315.2291477
aF14.0841542347
asS'2000-01-01 00:04:50.903876'
p1741
(lp1742
F3096.57204792
aF18.8372707579
asS'2000-01-01 00:05:00.312246'
p1743
(lp1744
F124.264904965
aF0.75593644337
asS'2000-01-01 00:05:08.415503'
p1745
(lp1746
F2931.90010218
aF17.8355275464
asS'2000-01-01 00:04:45.657775'
p1747
(lp1748
F3790.98621195
aF23.0615766754
asS'2000-01-01 00:04:43.088993'
p1749
(lp1750
F3724.16880482
aF22.6551086295
asS'2000-01-01 00:04:38.627615'
p1751
(lp1752
F2984.86938078
aF18.157753746
asS'2000-01-01 00:04:32.694706'
p1753
(lp1754
F1058.17667559
aF6.43716995416
asS'2000-01-01 00:04:48.925507'
p1755
(lp1756
F3483.40988653
aF21.1905081419
asS'2000-01-01 00:05:05.646566'
p1757
(lp1758
F2118.32711818
aF12.8863468576
asS'2000-01-01 00:04:31.014338'
p1759
(lp1760
F402.915686602
aF2.45104320639
asS'2000-01-01 00:05:07.326431'
p1761
(lp1762
F2637.74967915
aF16.0461323454
asS'2000-01-01 00:04:49.616113'
p1763
(lp1764
F3364.58190349
aF20.4676459396
asS'2000-01-01 00:04:57.429941'
p1765
(lp1766
F1010.38164894
aF6.14642010436
asS'2000-01-01 00:04:39.317937'
p1767
(lp1768
F3146.93206678
aF19.1436241371
asS'2000-01-01 00:05:04.264377'
p1769
(lp1770
F1641.13533649
aF9.98346242409
asS'2000-01-01 00:04:58.328867'
p1771
(lp1772
F661.580395733
aF4.02456937856
asS'2000-01-01 00:04:37.737228'
p1773
(lp1774
F2753.03710415
aF16.7474563921
asS'2000-01-01 00:04:47.933577'
p1775
(lp1776
F3622.08390637
aF22.0340990606
asS'2000-01-01 00:04:54.466427'
p1777
(lp1778
F2080.78441797
aF12.6579646343
asS'2000-01-01 00:05:09.107261'
p1779
(lp1780
F3099.17993226
aF18.8531352115
asS'2000-01-01 00:04:52.489047'
p1781
(lp1782
F2690.0488794
aF16.3642822802
asS'2000-01-01 00:04:32.103039'
p1783
(lp1784
F830.158278717
aF5.05007344449
asS'2000-01-01 00:04:37.342464'
p1785
(lp1786
F2642.33855799
aF16.0740477149
asS'2000-01-01 00:05:07.424787'
p1787
(lp1788
F2665.79134542
aF16.2167172541
asS'2000-01-01 00:04:33.780593'
p1789
(lp1790
F1465.46956081
aF8.91484082311
asS'2000-01-01 00:05:08.810840'
p1791
(lp1792
F3029.44039656
aF18.4288910808
asS'2000-01-01 00:05:08.613842'
p1793
(lp1794
F2981.47613329
aF18.1371117196
asS'2000-01-01 00:04:37.836311'
p1795
(lp1796
F2779.97538893
aF16.9113291379
asS'2000-01-01 00:04:28.937764'
p1797
(lp1798
F421.797736844
aF2.56590773638
asS'2000-01-01 00:05:02.683160'
p1799
(lp1800
F1053.76229886
aF6.4103161273
asS'2000-01-01 00:04:30.716329'
p1801
(lp1802
F284.820072521
aF1.73263619911
asS'2000-01-01 00:05:06.536082'
p1803
(lp1804
F2402.59556602
aF14.6156273771
asS'2000-01-01 00:05:03.571459'
p1805
(lp1806
F1388.34123051
aF8.44564869116
asS'2000-01-01 00:04:28.839359'
p1807
(lp1808
F460.689117166
aF2.80249433922
asS'2000-01-01 00:04:57.924198'
p1809
(lp1810
F819.509768405
aF4.98529572615
asS'2000-01-01 00:05:04.559903'
p1811
(lp1812
F1746.39995326
aF10.6238150646
asS'2000-01-01 00:04:43.187418'
p1813
(lp1814
F3731.75658944
aF22.70126714
asS'2000-01-01 00:04:47.141375'
p1815
(lp1816
F3704.84974722
aF22.5375856676
asS'2000-01-01 00:05:07.029878'
p1817
(lp1818
F2551.54569765
aF15.5217306151
asS'2000-01-01 00:04:48.333108'
p1819
(lp1820
F3570.85051416
aF21.7224327193
asS'2000-01-01 00:04:40.210766'
p1821
(lp1822
F3332.04439214
aF20.2697116104
asS'2000-01-01 00:04:31.606826'
p1823
(lp1824
F636.434255999
aF3.87159872735
asS'2000-01-01 00:04:37.540515'
p1825
(lp1826
F2698.40586599
aF16.4151200507
asS'2000-01-01 00:04:54.367870'
p1827
(lp1828
F2113.49596607
aF12.8569576753
asS'2000-01-01 00:04:55.849593'
p1829
(lp1830
F1600.05229978
aF9.73354339295
asS'2000-01-01 00:04:45.756267'
p1831
(lp1832
F3788.08582993
aF23.0439328808
asS'2000-01-01 00:05:08.712299'
p1833
(lp1834
F3005.60839212
aF18.2839146639
asS'2000-01-01 00:04:34.672309'
p1835
(lp1836
F1786.00534429
aF10.8647451843
asS'2000-01-01 00:04:34.968911'
p1837
(lp1838
F1889.30499397
aF11.4931444077
asS'2000-01-01 00:04:41.198348'
p1839
(lp1840
F3502.83890129
aF21.3087000024
asS'2000-01-01 00:05:07.227936'
p1841
(lp1842
F2609.39764041
aF15.8736593585
asS'2000-01-01 00:04:41.001441'
p1843
(lp1844
F3471.72001269
aF21.1193955324
asS'2000-01-01 00:04:33.090533'
p1845
(lp1846
F1208.50673213
aF7.35166764204
asS'2000-01-01 00:04:44.670814'
p1847
(lp1848
F3797.74408211
aF23.1026865957
asS'2000-01-01 00:04:47.835042'
p1849
(lp1850
F3633.74850615
aF22.1050579213
asS'2000-01-01 00:04:42.595509'
p1851
(lp1852
F3680.17998689
aF22.3875129589
asS'2000-01-01 00:04:31.211115'
p1853
(lp1854
F480.686511095
aF2.92414380129
asS'2000-01-01 00:04:45.460724'
p1855
(lp1856
F3795.57609093
aF23.0894981291
asS'2000-01-01 00:04:47.437761'
p1857
(lp1858
F3676.84138231
aF22.36720334
asS'2000-01-01 00:04:41.698348'
p1859
(lp1860
F3575.13578325
aF21.7485011501
asS'2000-01-01 00:04:54.763196'
p1861
(lp1862
F1980.98442469
aF12.0508547509
asS'2000-01-01 00:04:51.199164'
p1863
(lp1864
F3026.99363916
aF18.4140068053
asS'2000-01-01 00:05:05.843998'
p1865
(lp1866
F2183.09281159
aF13.2803337837
asS'2000-01-01 00:04:59.612100'
p1867
(lp1868
F154.283149015
aF0.938545400015
asS'2000-01-01 00:04:50.311997'
p1869
(lp1870
F3227.05676414
aF19.6310439663
asS'2000-01-01 00:04:48.629007'
p1871
(lp1872
F3528.87228365
aF21.4670679864
asS'2000-01-01 00:05:03.275201'
p1873
(lp1874
F1277.94662591
aF7.77408897128
asS'2000-01-01 00:04:45.066005'
p1875
(lp1876
F3799.90898361
aF23.1158562669
asS'2000-01-01 00:04:57.626921'
p1877
(lp1878
F934.608040307
aF5.68546910434
asS'2000-01-01 00:05:00.707057'
p1879
(lp1880
F281.138684811
aF1.71024133925
asS'2000-01-01 00:04:50.607612'
p1881
(lp1882
F3163.40448782
aF19.2438302522
asS'2000-01-01 00:04:32.004532'
p1883
(lp1884
F791.863807013
aF4.81711799541
asS'2000-01-01 00:04:41.898290'
p1885
(lp1886
F3601.31530704
aF21.9077581512
asS'2000-01-01 00:05:04.659545'
p1887
(lp1888
F1781.51977232
aF10.8374582578
asS'2000-01-01 00:04:37.144825'
p1889
(lp1890
F2585.25603944
aF15.7267995835
asS'2000-01-01 00:04:43.681070'
p1891
(lp1892
F3763.81699305
aF22.896299096
asS'2000-01-01 00:04:36.058988'
p1893
(lp1894
F2252.56173371
aF13.7029317
asS'2000-01-01 00:04:57.726586'
p1895
(lp1896
F896.11472324
aF5.45130402607
asS'2000-01-01 00:04:31.804055'
p1897
(lp1898
F713.668352544
aF4.3414342635
asS'2000-01-01 00:05:02.978800'
p1899
(lp1900
F1166.27283629
aF7.09474762891
asS'2000-01-01 00:05:07.723569'
p1901
(lp1902
F2749.20502488
aF16.7241448354
asS'2000-01-01 00:04:44.869110'
p1903
(lp1904
F3799.64352174
aF23.1142413918
asS'2000-01-01 00:04:34.375360'
p1905
(lp1906
F1680.85550282
aF10.2250907525
asS'2000-01-01 00:04:55.750620'
p1907
(lp1908
F1635.68680608
aF9.95031756555
asS'2000-01-01 00:04:49.122385'
p1909
(lp1910
F3451.36344746
aF20.9955611359
asS'2000-01-01 00:04:52.292123'
p1911
(lp1912
F2744.8335431
aF16.6975519499
asS'2000-01-01 00:04:58.031510'
p1913
(lp1914
F777.727055618
aF4.73112037948
asS'2000-01-01 00:04:53.971166'
p1915
(lp1916
F2242.82433882
aF13.6436965389
asS'2000-01-01 00:04:29.531426'
p1917
(lp1918
F186.352641175
aF1.13363264408
asS'2000-01-01 00:04:47.636241'
p1919
(lp1920
F3656.10285951
aF22.241045394
asS'2000-01-01 00:04:31.112724'
p1921
(lp1922
F441.824926091
aF2.68773845129
asS'2000-01-01 00:04:54.663546'
p1923
(lp1924
F2014.71518255
aF12.2560479157
asS'2000-01-01 00:05:01.397705'
p1925
(lp1926
F554.264386706
aF3.37173757377
asS'2000-01-01 00:05:09.007649'
p1927
(lp1928
F3076.07326597
aF18.7125712193
asS'2000-01-01 00:04:59.019457'
p1929
(lp1930
F389.472315831
aF2.36926360908
asS'2000-01-01 00:04:39.912264'
p1931
(lp1932
F3273.31904696
aF19.912469728
asS'2000-01-01 00:04:55.156843'
p1933
(lp1934
F1845.66437673
aF11.2276669345
asS'2000-01-01 00:05:03.176782'
p1935
(lp1936
F1240.99544769
aF7.54930513348
asS'2000-01-01 00:05:00.904266'
p1937
(lp1938
F359.336463881
aF2.18593921232
asS'2000-01-01 00:05:04.954837'
p1939
(lp1940
F1884.44470994
aF11.4635780083
asS'2000-01-01 00:04:56.838216'
p1941
(lp1942
F1235.28820623
aF7.51458646682
asS'2000-01-01 00:04:46.054933'
p1943
(lp1944
F3776.83172312
aF22.975471158
asS'2000-01-01 00:04:43.779763'
p1945
(lp1946
F3769.02285863
aF22.9279677599
asS'2000-01-01 00:04:38.726059'
p1947
(lp1948
F3008.95497741
aF18.3042728316
asS'2000-01-01 00:04:58.724168'
p1949
(lp1950
F506.153322894
aF3.0790651859
asS'2000-01-01 00:04:35.758077'
p1951
(lp1952
F2155.02682743
aF13.1096009428
asS'2000-01-01 00:04:58.921020'
p1953
(lp1954
F428.417764082
aF2.60617912151
asS'2000-01-01 00:04:53.279917'
p1955
(lp1956
F2458.81081805
aF14.9575996959
asS'2000-01-01 00:04:46.351525'
p1957
(lp1958
F3761.99968403
aF22.8852439222
asS'2000-01-01 00:04:42.694064'
p1959
(lp1960
F3689.75408877
aF22.4457547652
asS'2000-01-01 00:04:39.022542'
p1961
(lp1962
F3079.54793362
aF18.7337085461
asS'2000-01-01 00:05:01.101042'
p1963
(lp1964
F437.206256668
aF2.65964185766
asS'2000-01-01 00:04:36.848366'
p1965
(lp1966
F2497.56230291
aF15.1933352774
asS'2000-01-01 00:04:45.955522'
p1967
(lp1968
F3780.98596898
aF23.0007425397
asS'2000-01-01 00:04:38.035305'
p1969
(lp1970
F2833.35503188
aF17.236051693
asS'2000-01-01 00:05:07.822696'
p1971
(lp1972
F2776.27991231
aF16.8888485715
asS'2000-01-01 00:05:04.758063'
p1973
(lp1974
F1816.0534842
aF11.0475360054
asS'2000-01-01 00:04:58.230450'
p1975
(lp1976
F700.108850332
aF4.25894820778
asS'2000-01-01 00:04:44.967524'
p1977
(lp1978
F3799.97813961
aF23.1162769612
asS'2000-01-01 00:04:29.925826'
p1979
(lp1980
F29.4504585074
aF0.179154966287
asS'2000-01-01 00:05:04.362794'
p1981
(lp1982
F1676.36935049
aF10.1978002956
asS'2000-01-01 00:04:41.501417'
p1983
(lp1984
F3547.82020289
aF21.582333215
asS'2000-01-01 00:05:00.805811'
p1985
(lp1986
F320.313332473
aF1.94855113261
asS'2000-01-01 00:04:58.822612'
p1987
(lp1988
F467.303043826
aF2.84272861291
asS'2000-01-01 00:04:46.944368'
p1989
(lp1990
F3721.49303145
aF22.6388311889
asS'2000-01-01 00:04:39.615097'
p1991
(lp1992
F3211.68030541
aF19.5375048811
asS'2000-01-01 00:04:40.309181'
p1993
(lp1994
F3350.6943365
aF20.3831641786
asS'2000-01-01 00:04:37.442074'
p1995
(lp1996
F2670.68114308
aF16.2464631928
asS'2000-01-01 00:04:43.879445'
p1997
(lp1998
F3773.87168234
aF22.9574644432
asS'2000-01-01 00:05:09.304541'
p1999
(lp2000
F3143.94073375
aF19.1254270633
asS'2000-01-01 00:04:41.099881'
p2001
(lp2002
F3487.46268302
aF21.2151623801
asS'2000-01-01 00:05:05.942410'
p2003
(lp2004
F2215.03031683
aF13.4746181163
asS'2000-01-01 00:04:30.815781'
p2005
(lp2006
F324.271629013
aF1.97263050247
asS'2000-01-01 00:04:45.262787'
p2007
(lp2008
F3798.56028824
aF23.1076517945
asS'2000-01-01 00:04:41.402949'
p2009
(lp2010
F3533.59564642
aF21.4958014574
asS'2000-01-01 00:05:00.213753'
p2011
(lp2012
F85.0877060417
aF0.517611130009
asS'2000-01-01 00:04:36.354604'
p2013
(lp2014
F2346.2043993
aF14.2725849227
asS'2000-01-01 00:04:48.036552'
p2015
(lp2016
F3609.4824724
aF21.9574411886
asS'2000-01-01 00:04:51.694098'
p2017
(lp2018
F2903.9182254
aF17.6653063531
asS'2000-01-01 00:05:08.120004'
p2019
(lp2020
F2855.7031547
aF17.3720012636
asS'2000-01-01 00:04:40.408802'
p2021
(lp2022
F3369.21094353
aF20.4958056205
asS'2000-01-01 00:04:31.902621'
p2023
(lp2024
F752.15344187
aF4.57554929023
asS'2000-01-01 00:04:35.659319'
p2025
(lp2026
F2122.53775391
aF12.9119612738
asS'2000-01-01 00:04:30.419537'
p2027
(lp2028
F166.929359053
aF1.01547565672
asS'2000-01-01 00:04:42.990593'
p2029
(lp2030
F3716.1877697
aF22.6065578717
asS'2000-01-01 00:04:53.476813'
p2031
(lp2032
F2398.55454107
aF14.5910447484
asS'2000-01-01 00:04:35.264046'
p2033
(lp2034
F1990.2879876
aF12.1074507967
asS'2000-01-01 00:04:54.070467'
p2035
(lp2036
F2210.80930686
aF13.4489405907
asS'2000-01-01 00:05:08.514228'
p2037
(lp2038
F2956.7362225
aF17.9866122671
asS'2000-01-01 00:04:34.573963'
p2039
(lp2040
F1751.3671205
aF10.654031663
asS'2000-01-01 00:04:32.201458'
p2041
(lp2042
F868.331491367
aF5.28229124251
asS'2000-01-01 00:04:30.321199'
p2043
(lp2044
F127.837168027
aF0.77766746899
asS'2000-01-01 00:05:06.931490'
p2045
(lp2046
F2522.39751777
aF15.34441449
asS'2000-01-01 00:04:50.509112'
p2047
(lp2048
F3184.95231966
aF19.3749114402
asS'2000-01-01 00:04:35.856773'
p2049
(lp2050
F2187.25216124
aF13.3056362131
asS'2000-01-01 00:04:56.246345'
p2051
(lp2052
F1455.50871505
aF8.854246351
asS'2000-01-01 00:05:03.373523'
p2053
(lp2054
F1314.72662541
aF7.99783148342
asS'2000-01-01 00:04:53.575246'
p2055
(lp2056
F2368.04660744
aF14.4054568799
asS'2000-01-01 00:04:53.378408'
p2057
(lp2058
F2428.79875935
aF14.7750283664
asS'2000-01-01 00:04:49.814730'
p2059
(lp2060
F3327.12123481
aF20.2397627359
asS'2000-01-01 00:04:56.443196'
p2061
(lp2062
F1382.84540052
aF8.41221609663
asS'2000-01-01 00:04:36.454124'
p2063
(lp2064
F2377.230558
aF14.461325292
asS'2000-01-01 00:04:49.221071'
p2065
(lp2066
F3434.74780023
aF20.8944837378
asS'2000-01-01 00:05:08.317068'
p2067
(lp2068
F2906.82597048
aF17.6829949392
asS'2000-01-01 00:05:05.744983'
p2069
(lp2070
F2150.7282626
aF13.0834516305
asS'2000-01-01 00:04:34.079863'
p2071
(lp2072
F1574.61055844
aF9.57877451862
asS'2000-01-01 00:04:40.508123'
p2073
(lp2074
F3387.30710401
aF20.6058893741
asS'2000-01-01 00:04:43.484122'
p2075
(lp2076
F3752.22818757
aF22.8258013122
asS'2000-01-01 00:04:54.168861'
p2077
(lp2078
F2178.83305302
aF13.2544205402
asS'2000-01-01 00:04:44.769423'
p2079
(lp2080
F3798.89313715
aF23.1096766029
asS'2000-01-01 00:04:46.449952'
p2081
(lp2082
F3756.27340166
aF22.8504094246
asS'2000-01-01 00:04:28.740782'
p2083
(lp2084
F499.600193071
aF3.03920075553
asS'2000-01-01 00:04:42.394511'
p2085
(lp2086
F3659.44058237
aF22.2613496492
asS'2000-01-01 00:04:56.640120'
p2087
(lp2088
F1309.56576233
aF7.9664365817
asS'2000-01-01 00:04:49.419104'
p2089
(lp2090
F3400.30295984
aF20.6849466191
asS'2000-01-01 00:04:56.146823'
p2091
(lp2092
F1492.01127118
aF9.07630110138
asS'2000-01-01 00:04:48.135091'
p2093
(lp2094
F3597.03068598
aF21.8816936625
asS'2000-01-01 00:04:45.856084'
p2095
(lp2096
F3784.73692993
aF23.023560632
asS'2000-01-01 00:05:00.607509'
p2097
(lp2098
F241.620664351
aF1.4698427179
asS'2000-01-01 00:05:02.485015'
p2099
(lp2100
F977.78857355
aF5.94814776435
asS'2000-01-01 00:05:04.065995'
p2101
(lp2102
F1569.59220947
aF9.54824656807
asS'2000-01-01 00:04:44.078637'
p2103
(lp2104
F3782.32927131
aF23.0089142047
asS'2000-01-01 00:04:36.948050'
p2105
(lp2106
F2527.32235724
aF15.3743735974
asS'2000-01-01 00:04:44.375327'
p2107
(lp2108
F3791.87457453
aF23.0669808211
asS'2000-01-01 00:05:01.002669'
p2109
(lp2110
F398.298042855
aF2.42295285222
asS'2000-01-01 00:04:44.572434'
p2111
(lp2112
F3796.19322011
aF23.09325229
asS'2000-01-01 00:04:29.332884'
p2113
(lp2114
F265.219247619
aF1.61339917183
asS'2000-01-01 00:04:49.913203'
p2115
(lp2116
F3308.01291299
aF20.1235217358
asS'2000-01-01 00:04:31.309527'
p2117
(lp2118
F519.542794519
aF3.16051690038
asS'2000-01-01 00:05:07.524392'
p2119
(lp2120
F2693.93877147
aF16.3879455276
asS'2000-01-01 00:04:52.983515'
p2121
(lp2122
F2547.5424095
aF15.4973775493
asS'2000-01-01 00:04:38.924122'
p2123
(lp2124
F3056.44061923
aF18.5931406113
asS'2000-01-01 00:04:30.026029'
p2125
(lp2126
F10.3924647017
aF0.0632201248343
asS'2000-01-01 00:04:47.339310'
p2127
(lp2128
F3686.53908106
aF22.4261970188
asS'2000-01-01 00:04:54.565061'
p2129
(lp2130
F2047.83671973
aF12.4575350292
asS'2000-01-01 00:04:31.508266'
p2131
(lp2132
F597.736107943
aF3.63618760774
asS'2000-01-01 00:04:42.294872'
p2133
(lp2134
F3648.55583793
aF22.1951348559
asS'2000-01-01 00:04:54.268606'
p2135
(lp2136
F2146.2102236
aF13.0559671985
asS'2000-01-01 00:05:04.856483'
p2137
(lp2138
F1850.35772483
aF11.2562178184
asS'2000-01-01 00:04:39.516408'
p2139
(lp2140
F3190.51902118
aF19.408775165
asS'2000-01-01 00:04:29.728249'
p2141
(lp2142
F108.091246153
aF0.657547778266
asS'2000-01-01 00:04:44.177179'
p2143
(lp2144
F3785.90519975
aF23.0306675278
asS'2000-01-01 00:05:04.165799'
p2145
(lp2146
F1605.66893144
aF9.76771085611
asS'2000-01-01 00:05:00.509044'
p2147
(lp2148
F202.502342272
aF1.23187556803
asS'2000-01-01 00:05:01.496599'
p2149
(lp2150
F593.148028625
aF3.60827710185
asS'2000-01-01 00:04:48.530480'
p2151
(lp2152
F3543.22794416
aF21.5543972846
asS'2000-01-01 00:04:56.936647'
p2153
(lp2154
F1198.18181263
aF7.2888584126
asS'2000-01-01 00:04:36.552580'
p2155
(lp2156
F2407.66725204
aF14.6464797912
asS'2000-01-01 00:05:00.008028'
p2157
(lp2158
F3.23718593003
aF0.0196926623744
asS'2000-01-01 00:04:38.824561'
p2159
(lp2160
F3032.73369633
aF18.4489250986
asS'2000-01-01 00:04:51.794154'
p2161
(lp2162
F2878.07684918
aF17.5081063935
asS'2000-01-01 00:04:35.362430'
p2163
(lp2164
F2023.53165809
aF12.3096808796
asS'2000-01-01 00:04:33.981175'
p2165
(lp2166
F1538.78696174
aF9.36085005887
asS'2000-01-01 00:04:34.276948'
p2167
(lp2168
F1645.64542605
aF10.0108984975
asS'2000-01-01 00:04:53.081932'
p2169
(lp2170
F2518.34728228
aF15.3197758311
asS'2000-01-01 00:04:30.519411'
p2171
(lp2172
F206.626883042
aF1.25696624574
asS'2000-01-01 00:05:02.386490'
p2173
(lp2174
F939.846973286
aF5.71733892602
asS'2000-01-01 00:04:47.042875'
p2175
(lp2176
F3713.36880539
aF22.5894093626
asS'2000-01-01 00:04:54.960045'
p2177
(lp2178
F1913.72208868
aF11.6416800843
asS'2000-01-01 00:04:51.892692'
p2179
(lp2180
F2852.32177461
aF17.3514314299
asS'2000-01-01 00:04:52.192522'
p2181
(lp2182
F2772.09357436
aF16.8633819651
asS'2000-01-01 00:04:59.117828'
p2183
(lp2184
F350.512828114
aF2.13226269085
asS'2000-01-01 00:04:32.891741'
p2185
(lp2186
F1133.25109184
aF6.89386758109
asS'2000-01-01 00:04:36.650952'
p2187
(lp2188
F2437.82606588
aF14.8299438712
asS'2000-01-01 00:04:56.344761'
p2189
(lp2190
F1419.25631607
aF8.63371337304
asS'2000-01-01 00:04:55.058446'
p2191
(lp2192
F1879.79335681
aF11.435282591
asS'2000-01-01 00:04:32.497914'
p2193
(lp2194
F982.743974791
aF5.97829278712
asS'2000-01-01 00:04:43.979973'
p2195
(lp2196
F3778.34609932
aF22.9846835109
asS'2000-01-01 00:04:33.879202'
p2197
(lp2198
F1501.594263
aF9.13459698754
asS'2000-01-01 00:04:34.770896'
p2199
(lp2200
F1820.53832477
aF11.0748184826
asS'2000-01-01 00:04:51.595670'
p2201
(lp2202
F2929.0270383
aF17.8180499352
asS'2000-01-01 00:04:50.410441'
p2203
(lp2204
F3206.19935415
aF19.5041627979
asS'2000-01-01 00:04:48.431566'
p2205
(lp2206
F3557.26144124
aF21.6397667771
asS'2000-01-01 00:05:07.129479'
p2207
(lp2208
F2580.77676782
aF15.6995509838
asS'2000-01-01 00:04:39.713566'
p2209
(lp2210
F3232.45145569
aF19.6638613087
asS'2000-01-01 00:05:06.733964'
p2211
(lp2212
F2463.07280853
aF14.9835265167
asS'2000-01-01 00:04:59.414410'
p2213
(lp2214
F232.846213209
aF1.41646539958
asS'2000-01-01 00:04:53.872193'
p2215
(lp2216
F2274.49970318
aF13.8363861989
asS'2000-01-01 00:04:58.130790'
p2217
(lp2218
F739.049767556
aF4.49583615676
asS'2000-01-01 00:05:03.077246'
p2219
(lp2220
F1203.49309322
aF7.32116834403
asS'2000-01-01 00:05:06.832824'
p2221
(lp2222
F2492.89686602
aF15.1649541848
asS'2000-01-01 00:04:40.803365'
p2223
(lp2224
F3438.92711516
aF20.9199076213
asS'2000-01-01 00:04:50.014509'
p2225
(lp2226
F3287.98597187
aF20.0016925303
asS'2000-01-01 00:04:38.430223'
p2227
(lp2228
F2935.62304369
aF17.858175189
asS'2000-01-01 00:04:59.810679'
p2229
(lp2230
F75.2955523981
aF0.458042856889
asS'2000-01-01 00:05:02.089828'
p2231
(lp2232
F825.027715714
aF5.01886286616
asS'2000-01-01 00:05:01.200644'
p2233
(lp2234
F476.553721765
aF2.89900294541
asS'2000-01-01 00:04:44.473935'
p2235
(lp2236
F3794.23725173
aF23.0813536145
asS'2000-01-01 00:04:42.196435'
p2237
(lp2238
F3637.41348061
aF22.1273529349
asS'2000-01-01 00:04:55.256455'
p2239
(lp2240
F1810.91680979
aF11.0162882498
asS'2000-01-01 00:05:02.583579'
p2241
(lp2242
F1015.63260386
aF6.17836305873
asS'2000-01-01 00:04:46.251876'
p2243
(lp2244
F3767.38848834
aF22.918025451
asS'2000-01-01 00:04:40.606526'
p2245
(lp2246
F3404.87465211
aF20.7127574382
asS'2000-01-01 00:04:34.475360'
p2247
(lp2248
F1716.45332505
aF10.4416417661
asS'2000-01-01 00:05:05.546847'
p2249
(lp2250
F2085.26785258
aF12.6852385586
asS'2000-01-01 00:05:02.880326'
p2251
(lp2252
F1128.9137816
aF6.86748257018
asS'2000-01-01 00:04:45.164379'
p2253
(lp2254
F3799.43641012
aF23.1129814767
asS'2000-01-01 00:04:52.390595'
p2255
(lp2256
F2717.58978129
aF16.5318209061
asS'2000-01-01 00:04:55.354939'
p2257
(lp2258
F1776.36478233
aF10.8060990837
asS'2000-01-01 00:04:43.582602'
p2259
(lp2260
F3758.22225697
aF22.8622648295
asS'2000-01-01 00:04:33.583539'
p2261
(lp2262
F1392.8141347
aF8.47285855613
asS'2000-01-01 00:05:08.019773'
p2263
(lp2264
F2829.23261972
aF17.2109739641
asS'2000-01-01 00:04:50.805494'
p2265
(lp2266
F3119.09920078
aF18.9743094159
asS'2000-01-01 00:04:29.135616'
p2267
(lp2268
F343.464289223
aF2.08938455545
asS'2000-01-01 00:04:56.739726'
p2269
(lp2270
F1272.28771794
aF7.73966433007
asS'2000-01-01 00:04:42.792530'
p2271
(lp2272
F3698.92810913
aF22.5015627693
asS'2000-01-01 00:05:08.909208'
p2273
(lp2274
F3052.91027181
aF18.5716645697
asS'2000-01-01 00:04:51.497189'
p2275
(lp2276
F2953.83569926
aF17.9689676133
asS'2000-01-01 00:04:51.397707'
p2277
(lp2278
F2978.57835403
aF18.1194837582
asS'2000-01-01 00:04:39.219479'
p2279
(lp2280
F3124.80536297
aF19.0090215171
asS'2000-01-01 00:04:49.714613'
p2281
(lp2282
F3346.18507942
aF20.3557331694
asS'2000-01-01 00:04:43.285810'
p2283
(lp2284
F3738.94520802
aF22.7449974173
asS'2000-01-01 00:04:37.046454'
p2285
(lp2286
F2556.42962157
aF15.5514408223
asS'2000-01-01 00:05:01.990569'
p2287
(lp2288
F786.427003169
aF4.78404447266
asS'2000-01-01 00:04:45.559338'
p2289
(lp2290
F3793.48108995
aF23.0767536814
asS'2000-01-01 00:04:36.749550'
p2291
(lp2292
F2467.80150896
aF15.0122924581
asS'2000-01-01 00:04:32.793345'
p2293
(lp2294
F1095.81884497
aF6.66615727487
asS'2000-01-01 00:04:41.797115'
p2295
(lp2296
F3588.26663224
aF21.8283795943
asS'2000-01-01 00:04:51.298843'
p2297
(lp2298
F3002.85146886
aF18.267143567
asS'2000-01-01 00:04:57.528451'
p2299
(lp2300
F972.540198006
aF5.91622050103
asS'2000-01-01 00:04:35.960312'
p2301
(lp2302
F2220.82161494
aF13.5098481218
asS'2000-01-01 00:04:33.485132'
p2303
(lp2304
F1356.30462003
aF8.25076147509
asS'2000-01-01 00:04:40.902938'
p2305
(lp2306
F3455.59814566
aF21.0213219305
asS'2000-01-01 00:04:46.845551'
p2307
(lp2308
F3729.24583667
aF22.6859935636
asS'2000-01-01 00:05:01.299097'
p2309
(lp2310
F515.394299814
aF3.13528050452
asS'2000-01-01 00:04:38.330585'
p2311
(lp2312
F2910.28880353
aF17.7040602729
asS'2000-01-01 00:04:49.023882'
p2313
(lp2314
F3467.58263151
aF21.0942267431
asS'2000-01-01 00:04:43.385334'
p2315
(lp2316
F3745.81313293
aF22.7867768299
asS'2000-01-01 00:04:47.734778'
p2317
(lp2318
F3645.22062532
aF22.1748458712
asS'2000-01-01 00:05:02.189549'
p2319
(lp2320
F863.717190309
aF5.25422122281
asS'2000-01-01 00:05:00.410581'
p2321
(lp2322
F163.368032037
aF0.993811157968
asS'2000-01-01 00:05:01.793635'
p2323
(lp2324
F709.595241913
aF4.31665644901
asS'2000-01-01 00:04:37.244021'
p2325
(lp2326
F2614.04586632
aF15.901935752
asS'2000-01-01 00:05:01.892135'
p2327
(lp2328
F748.062796734
aF4.55066480868
asS'2000-01-01 00:04:54.861628'
p2329
(lp2330
F1947.45516931
aF11.8468873792
asS'2000-01-01 00:04:42.494895'
p2331
(lp2332
F3670.00638649
aF22.3256242438
asS'2000-01-01 00:04:46.548721'
p2333
(lp2334
F3750.12834943
aF22.8130274388
asS'2000-01-01 00:04:57.035058'
p2335
(lp2336
F1160.95611314
aF7.06240458896
asS'2000-01-01 00:05:06.339000'
p2337
(lp2338
F2341.31646852
aF14.2428503406
asS'2000-01-01 00:05:05.349563'
p2339
(lp2340
F2019.19457503
aF12.2832972507
asS'2000-01-01 00:04:56.541603'
p2341
(lp2342
F1346.29690963
aF8.18988191288
asS'2000-01-01 00:04:51.100690'
p2343
(lp2344
F3050.5225193
aF18.5571392366
asS'2000-01-01 00:04:50.705941'
p2345
(lp2346
F3141.55771433
aF19.1109305228
asS'2000-01-01 00:04:33.681915'
p2347
(lp2348
F1429.16205398
aF8.69397260942
asS'2000-01-01 00:04:30.222924'
p2349
(lp2350
F88.7362173714
aF0.53980599411
asS'2000-01-01 00:04:41.599918'
p2351
(lp2352
F3561.67253896
aF21.6666006569
asS'2000-01-01 00:05:01.694757'
p2353
(lp2354
F670.904132501
aF4.08128814733
asS'2000-01-01 00:04:48.233551'
p2355
(lp2356
F3584.20569554
aF21.8036758371
asS'2000-01-01 00:05:06.240537'
p2357
(lp2358
F2310.33354829
aF14.0543730024
asS'2000-01-01 00:04:58.427222'
p2359
(lp2360
F623.004042819
aF3.78989917117
asS'2000-01-01 00:04:55.948065'
p2361
(lp2362
F1564.42621099
aF9.51682042631
asS'2000-01-01 00:04:42.098036'
p2363
(lp2364
F3625.88969854
aF22.0572507059
asS'2000-01-01 00:05:06.040929'
p2365
(lp2366
F2246.79321063
aF13.667840241
asS'2000-01-01 00:04:57.825623'
p2367
(lp2368
F857.767241498
aF5.21802610285
asS'2000-01-01 00:04:59.513590'
p2369
(lp2370
F193.439342299
aF1.17674293048
asS'2000-01-01 00:04:49.517751'
p2371
(lp2372
F3382.59629571
aF20.5772322752
asS'2000-01-01 00:04:35.462011'
p2373
(lp2374
F2056.9738354
aF12.5131185323
asS'2000-01-01 00:04:53.773696'
p2375
(lp2376
F2305.77598321
aF14.0266481227
asS'2000-01-01 00:04:53.180291'
p2377
(lp2378
F2488.90417864
aF15.1406656064
asS'2000-01-01 00:05:09.205969'
p2379
(lp2380
F3121.75170739
aF18.9904453186
asS'2000-01-01 00:04:39.120965'
p2381
(lp2382
F3102.33092798
aF18.8723035559
asS'2000-01-01 00:04:51.002259'
p2383
(lp2384
F3073.71622069
aF18.6982326864
asS'2000-01-01 00:04:44.275743'
p2385
(lp2386
F3789.07858274
aF23.0499720599
asS'2000-01-01 00:04:32.398317'
p2387
(lp2388
F944.406775069
aF5.74507741215
asS'2000-01-01 00:04:50.113913'
p2389
(lp2390
F3267.98066735
aF19.879994946
asS'2000-01-01 00:04:29.629792'
p2391
(lp2392
F147.232937628
aF0.895657090378
asS'2000-01-01 00:04:30.914701'
p2393
(lp2394
F363.469709991
aF2.21108284692
asS'2000-01-01 00:04:52.094078'
p2395
(lp2396
F2798.74063593
aF17.0254831227
asS'2000-01-01 00:04:41.999524'
p2397
(lp2398
F3613.96802613
aF21.9847280041
asS'2000-01-01 00:04:38.133701'
p2399
(lp2400
F2859.30422795
aF17.3939075493
asS'2000-01-01 00:04:37.936011'
p2401
(lp2402
F2806.87683886
aF17.0749778076
asS'2000-01-01 00:04:35.067238'
p2403
(lp2404
F1923.1542538
aF11.6990584516
asS'2000-01-01 00:04:35.165638'
p2405
(lp2406
F1956.82518096
aF11.9038876504
asS'2000-01-01 00:04:52.686988'
p2407
(lp2408
F2633.85302729
aF16.0224279764
asS'2000-01-01 00:05:00.114113'
p2409
(lp2410
F45.4447128877
aF0.27645226655
asS'2000-01-01 00:04:32.299885'
p2411
(lp2412
F906.417860653
aF5.51398074927
asS'2000-01-01 00:04:49.320694'
p2413
(lp2414
F3417.60392989
aF20.7901930181
asS'2000-01-01 00:04:57.233007'
p2415
(lp2416
F1085.70707438
aF6.60464468692
asS'2000-01-01 00:04:39.417501'
p2417
(lp2418
F3168.96802021
aF19.2776746984
asS'2000-01-01 00:04:28.641982'
p2419
(lp2420
F538.540353484
aF3.27608410063
asS'2000-01-01 00:05:04.461376'
p2421
(lp2422
F1711.48647586
aF10.4114271024
asS'2000-01-01 00:04:37.638894'
p2423
(lp2424
F2725.82607849
aF16.581924491
asS'2000-01-01 00:05:07.625161'
p2425
(lp2426
F2722.01679787
aF16.5587516246
asS'2000-01-01 00:05:05.152744'
p2427
(lp2428
F1952.42437257
aF11.8771163633
asS'2000-01-01 00:05:07.921210'
p2429
(lp2430
F2802.90079615
aF17.050790483
asS'2000-01-01 00:04:29.234492'
p2431
(lp2432
F304.263007282
aF1.8509127387
asS'2000-01-01 00:05:03.671074'
p2433
(lp2434
F1425.16164721
aF8.66963707188
asS'2000-01-01 00:04:59.711673'
p2435
(lp2436
F114.680620243
aF0.697632692145
asS'2000-01-01 00:05:08.218583'
p2437
(lp2438
F2881.42872119
aF17.5284967218
asS'2000-01-01 00:04:52.588408'
p2439
(lp2440
F2661.98921299
aF16.1935878719
asS'2000-01-01 00:05:06.635589'
p2441
(lp2442
F2433.13300924
aF14.8013947604
asS'2000-01-01 00:04:52.885119'
p2443
(lp2444
F2576.4596352
aF15.6732887187
asS'2000-01-01 00:04:33.287365'
p2445
(lp2446
F1282.50341703
aF7.80180914273
asS'2000-01-01 00:04:35.560875'
p2447
(lp2448
F2089.93124924
aF12.7136072399
asS'2000-01-01 00:05:03.769976'
p2449
(lp2450
F1461.5735648
aF8.89114044395
asS'2000-01-01 00:04:47.239736'
p2451
(lp2452
F3695.94881662
aF22.4834389411
asS'2000-01-01 00:04:50.212396'
p2453
(lp2454
F3247.80710832
aF19.7572738248
asS'2000-01-01 00:04:56.048223'
p2455
(lp2456
F1528.01587147
aF9.29532665407
asS'2000-01-01 00:04:55.650997'
p2457
(lp2458
F1671.38075503
aF10.1674533435
asS'2000-01-01 00:04:45.362223'
p2459
(lp2460
F3797.26474154
aF23.0997706396
asS'2000-01-01 00:04:30.617855'
p2461
(lp2462
F245.730006267
aF1.49484093693
asS'2000-01-01 00:05:03.868602'
p2463
(lp2464
F1497.7174435
aF9.11101326417
asS'2000-01-01 00:04:29.431501'
p2465
(lp2466
F226.047983275
aF1.37510996009
asS'2000-01-01 00:04:48.827026'
p2467
(lp2468
F3498.88503487
aF21.2846475821
asS'2000-01-01 00:05:01.595123'
p2469
(lp2470
F631.841724772
aF3.84366113932
asS'2000-01-01 00:04:33.188921'
p2471
(lp2472
F1245.56198937
aF7.57708462017
asS'2000-01-01 00:04:57.331548'
p2473
(lp2474
F1048.07194698
aF6.37570020448
asS'2000-01-01 00:04:58.526174'
p2475
(lp2476
F584.127604423
aF3.55340346403
asS'2000-01-01 00:04:38.529170'
p2477
(lp2478
F2960.46782555
aF18.0093126002
asS'2000-01-01 00:05:05.251140'
p2479
(lp2480
F1985.90984111
aF12.080817368
asS'2000-01-01 00:05:03.472842'
p2481
(lp2482
F1351.74058713
aF8.22299724994
asS'2000-01-01 00:05:02.781878'
p2483
(lp2484
F1091.44956495
aF6.63957778325
ass.